
Timer123.elf:     file format elf32-littlearm

Sections:
Idx Name          Size      VMA       LMA       File off  Algn
  0 .isr_vector   00000194  08000000  08000000  00010000  2**0
                  CONTENTS, ALLOC, LOAD, READONLY, DATA
  1 .text         000012b8  08000194  08000194  00010194  2**2
                  CONTENTS, ALLOC, LOAD, READONLY, CODE
  2 .rodata       0000001c  0800144c  0800144c  0001144c  2**2
                  CONTENTS, ALLOC, LOAD, READONLY, DATA
  3 .ARM.extab    00000000  08001468  08001468  00020028  2**0
                  CONTENTS
  4 .ARM          00000000  08001468  08001468  00020028  2**0
                  CONTENTS
  5 .preinit_array 00000000  08001468  08001468  00020028  2**0
                  CONTENTS, ALLOC, LOAD, DATA
  6 .init_array   00000004  08001468  08001468  00011468  2**2
                  CONTENTS, ALLOC, LOAD, DATA
  7 .fini_array   00000004  0800146c  0800146c  0001146c  2**2
                  CONTENTS, ALLOC, LOAD, DATA
  8 .data         00000028  20000000  08001470  00020000  2**2
                  CONTENTS, ALLOC, LOAD, DATA
  9 .bss          00000030  20000028  08001498  00020028  2**2
                  ALLOC
 10 ._user_heap_stack 00000600  20000058  08001498  00020058  2**0
                  ALLOC
 11 .ARM.attributes 00000030  00000000  00000000  00020028  2**0
                  CONTENTS, READONLY
 12 .debug_info   00006666  00000000  00000000  00020058  2**0
                  CONTENTS, READONLY, DEBUGGING, OCTETS
 13 .debug_abbrev 0000100b  00000000  00000000  000266be  2**0
                  CONTENTS, READONLY, DEBUGGING, OCTETS
 14 .debug_aranges 00000860  00000000  00000000  000276d0  2**3
                  CONTENTS, READONLY, DEBUGGING, OCTETS
 15 .debug_ranges 000007c8  00000000  00000000  00027f30  2**3
                  CONTENTS, READONLY, DEBUGGING, OCTETS
 16 .debug_macro  00011324  00000000  00000000  000286f8  2**0
                  CONTENTS, READONLY, DEBUGGING, OCTETS
 17 .debug_line   000057c4  00000000  00000000  00039a1c  2**0
                  CONTENTS, READONLY, DEBUGGING, OCTETS
 18 .debug_str    000bb9d9  00000000  00000000  0003f1e0  2**0
                  CONTENTS, READONLY, DEBUGGING, OCTETS
 19 .comment      000000ce  00000000  00000000  000fabb9  2**0
                  CONTENTS, READONLY
 20 .debug_frame  000023bc  00000000  00000000  000fac88  2**2
                  CONTENTS, READONLY, DEBUGGING, OCTETS

Disassembly of section .text:

08000194 <__do_global_dtors_aux>:
 8000194:	b510      	push	{r4, lr}
 8000196:	4c05      	ldr	r4, [pc, #20]	; (80001ac <__do_global_dtors_aux+0x18>)
 8000198:	7823      	ldrb	r3, [r4, #0]
 800019a:	b933      	cbnz	r3, 80001aa <__do_global_dtors_aux+0x16>
 800019c:	4b04      	ldr	r3, [pc, #16]	; (80001b0 <__do_global_dtors_aux+0x1c>)
 800019e:	b113      	cbz	r3, 80001a6 <__do_global_dtors_aux+0x12>
 80001a0:	4804      	ldr	r0, [pc, #16]	; (80001b4 <__do_global_dtors_aux+0x20>)
 80001a2:	f3af 8000 	nop.w
 80001a6:	2301      	movs	r3, #1
 80001a8:	7023      	strb	r3, [r4, #0]
 80001aa:	bd10      	pop	{r4, pc}
 80001ac:	20000028 	.word	0x20000028
 80001b0:	00000000 	.word	0x00000000
 80001b4:	08001434 	.word	0x08001434

080001b8 <frame_dummy>:
 80001b8:	b508      	push	{r3, lr}
 80001ba:	4b03      	ldr	r3, [pc, #12]	; (80001c8 <frame_dummy+0x10>)
 80001bc:	b11b      	cbz	r3, 80001c6 <frame_dummy+0xe>
 80001be:	4903      	ldr	r1, [pc, #12]	; (80001cc <frame_dummy+0x14>)
 80001c0:	4803      	ldr	r0, [pc, #12]	; (80001d0 <frame_dummy+0x18>)
 80001c2:	f3af 8000 	nop.w
 80001c6:	bd08      	pop	{r3, pc}
 80001c8:	00000000 	.word	0x00000000
 80001cc:	2000002c 	.word	0x2000002c
 80001d0:	08001434 	.word	0x08001434

080001d4 <RCC_Configuration>:

#define TimLimit_SendData 2000  // 1s tại tần số đếm 2KHz

/*===========================================================*/
void RCC_Configuration(void)
{
 80001d4:	b580      	push	{r7, lr}
 80001d6:	af00      	add	r7, sp, #0
    RCC_APB1PeriphClockCmd(RCC_APB1Periph_USART2, ENABLE);
 80001d8:	2101      	movs	r1, #1
 80001da:	f44f 3000 	mov.w	r0, #131072	; 0x20000
 80001de:	f000 fc95 	bl	8000b0c <RCC_APB1PeriphClockCmd>
    RCC_APB1PeriphClockCmd(RCC_APB1Periph_TIM2,   ENABLE); // Chỉ cấp 1 lần
 80001e2:	2101      	movs	r1, #1
 80001e4:	2001      	movs	r0, #1
 80001e6:	f000 fc91 	bl	8000b0c <RCC_APB1PeriphClockCmd>
    RCC_AHB1PeriphClockCmd(RCC_AHB1Periph_GPIOA,  ENABLE);
 80001ea:	2101      	movs	r1, #1
 80001ec:	2001      	movs	r0, #1
 80001ee:	f000 fc6d 	bl	8000acc <RCC_AHB1PeriphClockCmd>
    RCC_AHB1PeriphClockCmd(RCC_AHB1Periph_GPIOB,  ENABLE);
 80001f2:	2101      	movs	r1, #1
 80001f4:	2002      	movs	r0, #2
 80001f6:	f000 fc69 	bl	8000acc <RCC_AHB1PeriphClockCmd>
}
 80001fa:	bf00      	nop
 80001fc:	bd80      	pop	{r7, pc}
	...

08000200 <GPIO_Configuration>:

/*===========================================================*/
void GPIO_Configuration(void)
{
 8000200:	b580      	push	{r7, lr}
 8000202:	b082      	sub	sp, #8
 8000204:	af00      	add	r7, sp, #0
    GPIO_InitTypeDef GPIO_InitStructure;

    // PA2 - USART2_TX
    GPIO_InitStructure.GPIO_Pin   = GPIO_Pin_2;
 8000206:	2304      	movs	r3, #4
 8000208:	603b      	str	r3, [r7, #0]
    GPIO_InitStructure.GPIO_Mode  = GPIO_Mode_AF;
 800020a:	2302      	movs	r3, #2
 800020c:	713b      	strb	r3, [r7, #4]
    GPIO_InitStructure.GPIO_OType = GPIO_OType_PP;
 800020e:	2300      	movs	r3, #0
 8000210:	71bb      	strb	r3, [r7, #6]
    GPIO_InitStructure.GPIO_PuPd  = GPIO_PuPd_UP;
 8000212:	2301      	movs	r3, #1
 8000214:	71fb      	strb	r3, [r7, #7]
    GPIO_InitStructure.GPIO_Speed = GPIO_Speed_50MHz;
 8000216:	2302      	movs	r3, #2
 8000218:	717b      	strb	r3, [r7, #5]
    GPIO_Init(GPIOA, &GPIO_InitStructure);
 800021a:	463b      	mov	r3, r7
 800021c:	4619      	mov	r1, r3
 800021e:	4810      	ldr	r0, [pc, #64]	; (8000260 <GPIO_Configuration+0x60>)
 8000220:	f000 face 	bl	80007c0 <GPIO_Init>
    GPIO_PinAFConfig(GPIOA, GPIO_PinSource2, GPIO_AF_USART2);
 8000224:	2207      	movs	r2, #7
 8000226:	2102      	movs	r1, #2
 8000228:	480d      	ldr	r0, [pc, #52]	; (8000260 <GPIO_Configuration+0x60>)
 800022a:	f000 fb58 	bl	80008de <GPIO_PinAFConfig>

    // PB3 - TIM2_CH2 Input Capture
    GPIO_InitStructure.GPIO_Pin   = GPIO_Pin_3;
 800022e:	2308      	movs	r3, #8
 8000230:	603b      	str	r3, [r7, #0]
    GPIO_InitStructure.GPIO_Mode  = GPIO_Mode_AF;
 8000232:	2302      	movs	r3, #2
 8000234:	713b      	strb	r3, [r7, #4]
    GPIO_InitStructure.GPIO_OType = GPIO_OType_PP;
 8000236:	2300      	movs	r3, #0
 8000238:	71bb      	strb	r3, [r7, #6]
    GPIO_InitStructure.GPIO_PuPd  = GPIO_PuPd_NOPULL;
 800023a:	2300      	movs	r3, #0
 800023c:	71fb      	strb	r3, [r7, #7]
    GPIO_InitStructure.GPIO_Speed = GPIO_Speed_50MHz;
 800023e:	2302      	movs	r3, #2
 8000240:	717b      	strb	r3, [r7, #5]
    GPIO_Init(GPIOB, &GPIO_InitStructure);
 8000242:	463b      	mov	r3, r7
 8000244:	4619      	mov	r1, r3
 8000246:	4807      	ldr	r0, [pc, #28]	; (8000264 <GPIO_Configuration+0x64>)
 8000248:	f000 faba 	bl	80007c0 <GPIO_Init>
    GPIO_PinAFConfig(GPIOB, GPIO_PinSource3, GPIO_AF_TIM2);
 800024c:	2201      	movs	r2, #1
 800024e:	2103      	movs	r1, #3
 8000250:	4804      	ldr	r0, [pc, #16]	; (8000264 <GPIO_Configuration+0x64>)
 8000252:	f000 fb44 	bl	80008de <GPIO_PinAFConfig>
}
 8000256:	bf00      	nop
 8000258:	3708      	adds	r7, #8
 800025a:	46bd      	mov	sp, r7
 800025c:	bd80      	pop	{r7, pc}
 800025e:	bf00      	nop
 8000260:	40020000 	.word	0x40020000
 8000264:	40020400 	.word	0x40020400

08000268 <USART2_Configuration>:

/*===========================================================*/
void USART2_Configuration(void)
{
 8000268:	b580      	push	{r7, lr}
 800026a:	b084      	sub	sp, #16
 800026c:	af00      	add	r7, sp, #0
    USART_InitTypeDef USART_InitStructure;

    USART_InitStructure.USART_BaudRate            = 9600;
 800026e:	f44f 5316 	mov.w	r3, #9600	; 0x2580
 8000272:	603b      	str	r3, [r7, #0]
    USART_InitStructure.USART_WordLength          = USART_WordLength_8b;
 8000274:	2300      	movs	r3, #0
 8000276:	80bb      	strh	r3, [r7, #4]
    USART_InitStructure.USART_StopBits            = USART_StopBits_1;
 8000278:	2300      	movs	r3, #0
 800027a:	80fb      	strh	r3, [r7, #6]
    USART_InitStructure.USART_Parity              = USART_Parity_No;
 800027c:	2300      	movs	r3, #0
 800027e:	813b      	strh	r3, [r7, #8]
    USART_InitStructure.USART_HardwareFlowControl = USART_HardwareFlowControl_None;
 8000280:	2300      	movs	r3, #0
 8000282:	81bb      	strh	r3, [r7, #12]
    USART_InitStructure.USART_Mode                = USART_Mode_Tx; // Chỉ truyền
 8000284:	2308      	movs	r3, #8
 8000286:	817b      	strh	r3, [r7, #10]
    USART_Init(USART2, &USART_InitStructure);
 8000288:	463b      	mov	r3, r7
 800028a:	4619      	mov	r1, r3
 800028c:	4805      	ldr	r0, [pc, #20]	; (80002a4 <USART2_Configuration+0x3c>)
 800028e:	f000 ff43 	bl	8001118 <USART_Init>
    USART_Cmd(USART2, ENABLE);
 8000292:	2101      	movs	r1, #1
 8000294:	4803      	ldr	r0, [pc, #12]	; (80002a4 <USART2_Configuration+0x3c>)
 8000296:	f000 fff9 	bl	800128c <USART_Cmd>
}
 800029a:	bf00      	nop
 800029c:	3710      	adds	r7, #16
 800029e:	46bd      	mov	sp, r7
 80002a0:	bd80      	pop	{r7, pc}
 80002a2:	bf00      	nop
 80002a4:	40004400 	.word	0x40004400

080002a8 <OutString>:

/*===========================================================*/
void OutString(char *s)
{
 80002a8:	b580      	push	{r7, lr}
 80002aa:	b082      	sub	sp, #8
 80002ac:	af00      	add	r7, sp, #0
 80002ae:	6078      	str	r0, [r7, #4]
    while(*s) {
 80002b0:	e010      	b.n	80002d4 <OutString+0x2c>
        while(USART_GetFlagStatus(USART2, USART_FLAG_TXE) == RESET);
 80002b2:	bf00      	nop
 80002b4:	2180      	movs	r1, #128	; 0x80
 80002b6:	480c      	ldr	r0, [pc, #48]	; (80002e8 <OutString+0x40>)
 80002b8:	f001 f81a 	bl	80012f0 <USART_GetFlagStatus>
 80002bc:	4603      	mov	r3, r0
 80002be:	2b00      	cmp	r3, #0
 80002c0:	d0f8      	beq.n	80002b4 <OutString+0xc>
        USART_SendData(USART2, *s++);
 80002c2:	687b      	ldr	r3, [r7, #4]
 80002c4:	1c5a      	adds	r2, r3, #1
 80002c6:	607a      	str	r2, [r7, #4]
 80002c8:	781b      	ldrb	r3, [r3, #0]
 80002ca:	b29b      	uxth	r3, r3
 80002cc:	4619      	mov	r1, r3
 80002ce:	4806      	ldr	r0, [pc, #24]	; (80002e8 <OutString+0x40>)
 80002d0:	f000 fffc 	bl	80012cc <USART_SendData>
    while(*s) {
 80002d4:	687b      	ldr	r3, [r7, #4]
 80002d6:	781b      	ldrb	r3, [r3, #0]
 80002d8:	2b00      	cmp	r3, #0
 80002da:	d1ea      	bne.n	80002b2 <OutString+0xa>
    }
}
 80002dc:	bf00      	nop
 80002de:	bf00      	nop
 80002e0:	3708      	adds	r7, #8
 80002e2:	46bd      	mov	sp, r7
 80002e4:	bd80      	pop	{r7, pc}
 80002e6:	bf00      	nop
 80002e8:	40004400 	.word	0x40004400

080002ec <TIM2_Configuration>:

/*===========================================================*/
void TIM2_Configuration(void)
{
 80002ec:	b580      	push	{r7, lr}
 80002ee:	b088      	sub	sp, #32
 80002f0:	af00      	add	r7, sp, #0
    TIM_TimeBaseInitTypeDef TIM_BaseStruct;
    TIM_ICInitTypeDef       TIM_ICStruct;
    NVIC_InitTypeDef        NVIC_InitStructure;

    // Timer Base: 84MHz / (41999+1) = 2KHz
    TIM_BaseStruct.TIM_Prescaler   = 41999;
 80002f2:	f24a 430f 	movw	r3, #41999	; 0xa40f
 80002f6:	82bb      	strh	r3, [r7, #20]
    TIM_BaseStruct.TIM_Period      = 0xFFFF;
 80002f8:	f64f 73ff 	movw	r3, #65535	; 0xffff
 80002fc:	61bb      	str	r3, [r7, #24]
    TIM_BaseStruct.TIM_CounterMode = TIM_CounterMode_Up;
 80002fe:	2300      	movs	r3, #0
 8000300:	82fb      	strh	r3, [r7, #22]
    TIM_BaseStruct.TIM_ClockDivision = TIM_CKD_DIV1;
 8000302:	2300      	movs	r3, #0
 8000304:	83bb      	strh	r3, [r7, #28]
    TIM_TimeBaseInit(TIM2, &TIM_BaseStruct);
 8000306:	f107 0314 	add.w	r3, r7, #20
 800030a:	4619      	mov	r1, r3
 800030c:	f04f 4080 	mov.w	r0, #1073741824	; 0x40000000
 8000310:	f000 fc1c 	bl	8000b4c <TIM_TimeBaseInit>

    // Input Capture kênh 2, bắt cả 2 sườn
    TIM_ICStruct.TIM_Channel     = TIM_Channel_2;
 8000314:	2304      	movs	r3, #4
 8000316:	813b      	strh	r3, [r7, #8]
    TIM_ICStruct.TIM_ICPolarity  = TIM_ICPolarity_BothEdge;
 8000318:	230a      	movs	r3, #10
 800031a:	817b      	strh	r3, [r7, #10]
    TIM_ICStruct.TIM_ICSelection = TIM_ICSelection_DirectTI;
 800031c:	2301      	movs	r3, #1
 800031e:	81bb      	strh	r3, [r7, #12]
    TIM_ICStruct.TIM_ICPrescaler = TIM_ICPSC_DIV1;
 8000320:	2300      	movs	r3, #0
 8000322:	81fb      	strh	r3, [r7, #14]
    TIM_ICStruct.TIM_ICFilter    = 0x0;
 8000324:	2300      	movs	r3, #0
 8000326:	823b      	strh	r3, [r7, #16]
    TIM_ICInit(TIM2, &TIM_ICStruct);
 8000328:	f107 0308 	add.w	r3, r7, #8
 800032c:	4619      	mov	r1, r3
 800032e:	f04f 4080 	mov.w	r0, #1073741824	; 0x40000000
 8000332:	f000 fc97 	bl	8000c64 <TIM_ICInit>

    // NVIC
    TIM_ITConfig(TIM2, TIM_IT_CC2, ENABLE);
 8000336:	2201      	movs	r2, #1
 8000338:	2104      	movs	r1, #4
 800033a:	f04f 4080 	mov.w	r0, #1073741824	; 0x40000000
 800033e:	f000 fd65 	bl	8000e0c <TIM_ITConfig>
    NVIC_InitStructure.NVIC_IRQChannel                   = TIM2_IRQn;
 8000342:	231c      	movs	r3, #28
 8000344:	713b      	strb	r3, [r7, #4]
    NVIC_InitStructure.NVIC_IRQChannelPreemptionPriority = 0;
 8000346:	2300      	movs	r3, #0
 8000348:	717b      	strb	r3, [r7, #5]
    NVIC_InitStructure.NVIC_IRQChannelSubPriority        = 0;
 800034a:	2300      	movs	r3, #0
 800034c:	71bb      	strb	r3, [r7, #6]
    NVIC_InitStructure.NVIC_IRQChannelCmd                = ENABLE;
 800034e:	2301      	movs	r3, #1
 8000350:	71fb      	strb	r3, [r7, #7]
    NVIC_Init(&NVIC_InitStructure);
 8000352:	1d3b      	adds	r3, r7, #4
 8000354:	4618      	mov	r0, r3
 8000356:	f000 ffe7 	bl	8001328 <NVIC_Init>

    TIM_Cmd(TIM2, ENABLE);
 800035a:	2101      	movs	r1, #1
 800035c:	f04f 4080 	mov.w	r0, #1073741824	; 0x40000000
 8000360:	f000 fc60 	bl	8000c24 <TIM_Cmd>
}
 8000364:	bf00      	nop
 8000366:	3720      	adds	r7, #32
 8000368:	46bd      	mov	sp, r7
 800036a:	bd80      	pop	{r7, pc}

0800036c <Check_Tim_Press>:

/*===========================================================*/
static void Check_Tim_Press(void)
{
 800036c:	b580      	push	{r7, lr}
 800036e:	af00      	add	r7, sp, #0
    static uint8_t Status1 = 0;
    Status1 = !Status1;
 8000370:	4b0f      	ldr	r3, [pc, #60]	; (80003b0 <Check_Tim_Press+0x44>)
 8000372:	781b      	ldrb	r3, [r3, #0]
 8000374:	2b00      	cmp	r3, #0
 8000376:	bf0c      	ite	eq
 8000378:	2301      	moveq	r3, #1
 800037a:	2300      	movne	r3, #0
 800037c:	b2db      	uxtb	r3, r3
 800037e:	461a      	mov	r2, r3
 8000380:	4b0b      	ldr	r3, [pc, #44]	; (80003b0 <Check_Tim_Press+0x44>)
 8000382:	701a      	strb	r2, [r3, #0]

    if(Status1 == 1)           // Sườn xuống → nhấn nút
 8000384:	4b0a      	ldr	r3, [pc, #40]	; (80003b0 <Check_Tim_Press+0x44>)
 8000386:	781b      	ldrb	r3, [r3, #0]
 8000388:	2b01      	cmp	r3, #1
 800038a:	d105      	bne.n	8000398 <Check_Tim_Press+0x2c>
    {
        Number_Press++;
 800038c:	4b09      	ldr	r3, [pc, #36]	; (80003b4 <Check_Tim_Press+0x48>)
 800038e:	681b      	ldr	r3, [r3, #0]
 8000390:	3301      	adds	r3, #1
 8000392:	4a08      	ldr	r2, [pc, #32]	; (80003b4 <Check_Tim_Press+0x48>)
 8000394:	6013      	str	r3, [r2, #0]
    else                       // Sườn lên → nhả nút
    {
        Tim_Rising = TIM_GetCapture2(TIM2);
        Status = 1;            // Bắt đầu tính 1s
    }
}
 8000396:	e009      	b.n	80003ac <Check_Tim_Press+0x40>
        Tim_Rising = TIM_GetCapture2(TIM2);
 8000398:	f04f 4080 	mov.w	r0, #1073741824	; 0x40000000
 800039c:	f000 fcb6 	bl	8000d0c <TIM_GetCapture2>
 80003a0:	4603      	mov	r3, r0
 80003a2:	4a05      	ldr	r2, [pc, #20]	; (80003b8 <Check_Tim_Press+0x4c>)
 80003a4:	6013      	str	r3, [r2, #0]
        Status = 1;            // Bắt đầu tính 1s
 80003a6:	4b05      	ldr	r3, [pc, #20]	; (80003bc <Check_Tim_Press+0x50>)
 80003a8:	2201      	movs	r2, #1
 80003aa:	701a      	strb	r2, [r3, #0]
}
 80003ac:	bf00      	nop
 80003ae:	bd80      	pop	{r7, pc}
 80003b0:	20000051 	.word	0x20000051
 80003b4:	20000044 	.word	0x20000044
 80003b8:	20000048 	.word	0x20000048
 80003bc:	20000050 	.word	0x20000050

080003c0 <TIM2_IRQHandler>:

void TIM2_IRQHandler(void)
{
 80003c0:	b580      	push	{r7, lr}
 80003c2:	af00      	add	r7, sp, #0
    if(TIM_GetITStatus(TIM2, TIM_IT_CC2) != RESET)
 80003c4:	2104      	movs	r1, #4
 80003c6:	f04f 4080 	mov.w	r0, #1073741824	; 0x40000000
 80003ca:	f000 fd43 	bl	8000e54 <TIM_GetITStatus>
 80003ce:	4603      	mov	r3, r0
 80003d0:	2b00      	cmp	r3, #0
 80003d2:	d006      	beq.n	80003e2 <TIM2_IRQHandler+0x22>
    {
        Check_Tim_Press();
 80003d4:	f7ff ffca 	bl	800036c <Check_Tim_Press>
        TIM_ClearITPendingBit(TIM2, TIM_IT_CC2);
 80003d8:	2104      	movs	r1, #4
 80003da:	f04f 4080 	mov.w	r0, #1073741824	; 0x40000000
 80003de:	f000 fd63 	bl	8000ea8 <TIM_ClearITPendingBit>
    }
}
 80003e2:	bf00      	nop
 80003e4:	bd80      	pop	{r7, pc}
	...

080003e8 <Send_NumberPress>:

/*===========================================================*/
void Send_NumberPress(void)
{
 80003e8:	b580      	push	{r7, lr}
 80003ea:	b082      	sub	sp, #8
 80003ec:	af00      	add	r7, sp, #0
    uint32_t Tim_SendData = 0;
 80003ee:	2300      	movs	r3, #0
 80003f0:	607b      	str	r3, [r7, #4]

    if(Status == 1)
 80003f2:	4b21      	ldr	r3, [pc, #132]	; (8000478 <Send_NumberPress+0x90>)
 80003f4:	781b      	ldrb	r3, [r3, #0]
 80003f6:	b2db      	uxtb	r3, r3
 80003f8:	2b01      	cmp	r3, #1
 80003fa:	d138      	bne.n	800046e <Send_NumberPress+0x86>
    {
        Tim_Update = TIM_GetCounter(TIM2);
 80003fc:	f04f 4080 	mov.w	r0, #1073741824	; 0x40000000
 8000400:	f000 fc04 	bl	8000c0c <TIM_GetCounter>
 8000404:	4603      	mov	r3, r0
 8000406:	4a1d      	ldr	r2, [pc, #116]	; (800047c <Send_NumberPress+0x94>)
 8000408:	6013      	str	r3, [r2, #0]

        if(Tim_Update < Tim_Rising)
 800040a:	4b1c      	ldr	r3, [pc, #112]	; (800047c <Send_NumberPress+0x94>)
 800040c:	681a      	ldr	r2, [r3, #0]
 800040e:	4b1c      	ldr	r3, [pc, #112]	; (8000480 <Send_NumberPress+0x98>)
 8000410:	681b      	ldr	r3, [r3, #0]
 8000412:	429a      	cmp	r2, r3
 8000414:	d209      	bcs.n	800042a <Send_NumberPress+0x42>
            Tim_SendData = (0xFFFF + Tim_Update) - Tim_Rising;
 8000416:	4b19      	ldr	r3, [pc, #100]	; (800047c <Send_NumberPress+0x94>)
 8000418:	681a      	ldr	r2, [r3, #0]
 800041a:	4b19      	ldr	r3, [pc, #100]	; (8000480 <Send_NumberPress+0x98>)
 800041c:	681b      	ldr	r3, [r3, #0]
 800041e:	1ad3      	subs	r3, r2, r3
 8000420:	f503 437f 	add.w	r3, r3, #65280	; 0xff00
 8000424:	33ff      	adds	r3, #255	; 0xff
 8000426:	607b      	str	r3, [r7, #4]
 8000428:	e005      	b.n	8000436 <Send_NumberPress+0x4e>
        else
            Tim_SendData = Tim_Update - Tim_Rising;
 800042a:	4b14      	ldr	r3, [pc, #80]	; (800047c <Send_NumberPress+0x94>)
 800042c:	681a      	ldr	r2, [r3, #0]
 800042e:	4b14      	ldr	r3, [pc, #80]	; (8000480 <Send_NumberPress+0x98>)
 8000430:	681b      	ldr	r3, [r3, #0]
 8000432:	1ad3      	subs	r3, r2, r3
 8000434:	607b      	str	r3, [r7, #4]

        if(Tim_SendData > TimLimit_SendData)
 8000436:	687b      	ldr	r3, [r7, #4]
 8000438:	f5b3 6ffa 	cmp.w	r3, #2000	; 0x7d0
 800043c:	d917      	bls.n	800046e <Send_NumberPress+0x86>
        {
            // Gửi số lần ấn dưới dạng ký tự ASCII
            while(USART_GetFlagStatus(USART2, USART_FLAG_TXE) == RESET);
 800043e:	bf00      	nop
 8000440:	2180      	movs	r1, #128	; 0x80
 8000442:	4810      	ldr	r0, [pc, #64]	; (8000484 <Send_NumberPress+0x9c>)
 8000444:	f000 ff54 	bl	80012f0 <USART_GetFlagStatus>
 8000448:	4603      	mov	r3, r0
 800044a:	2b00      	cmp	r3, #0
 800044c:	d0f8      	beq.n	8000440 <Send_NumberPress+0x58>
            USART_SendData(USART2, (uint8_t)(Number_Press + '0'));
 800044e:	4b0e      	ldr	r3, [pc, #56]	; (8000488 <Send_NumberPress+0xa0>)
 8000450:	681b      	ldr	r3, [r3, #0]
 8000452:	b2db      	uxtb	r3, r3
 8000454:	3330      	adds	r3, #48	; 0x30
 8000456:	b2db      	uxtb	r3, r3
 8000458:	b29b      	uxth	r3, r3
 800045a:	4619      	mov	r1, r3
 800045c:	4809      	ldr	r0, [pc, #36]	; (8000484 <Send_NumberPress+0x9c>)
 800045e:	f000 ff35 	bl	80012cc <USART_SendData>

            Status       = 0;
 8000462:	4b05      	ldr	r3, [pc, #20]	; (8000478 <Send_NumberPress+0x90>)
 8000464:	2200      	movs	r2, #0
 8000466:	701a      	strb	r2, [r3, #0]
            Number_Press = 0;
 8000468:	4b07      	ldr	r3, [pc, #28]	; (8000488 <Send_NumberPress+0xa0>)
 800046a:	2200      	movs	r2, #0
 800046c:	601a      	str	r2, [r3, #0]
        }
    }
}
 800046e:	bf00      	nop
 8000470:	3708      	adds	r7, #8
 8000472:	46bd      	mov	sp, r7
 8000474:	bd80      	pop	{r7, pc}
 8000476:	bf00      	nop
 8000478:	20000050 	.word	0x20000050
 800047c:	2000004c 	.word	0x2000004c
 8000480:	20000048 	.word	0x20000048
 8000484:	40004400 	.word	0x40004400
 8000488:	20000044 	.word	0x20000044

0800048c <main>:

/*===========================================================*/
int main(void)
{
 800048c:	b580      	push	{r7, lr}
 800048e:	af00      	add	r7, sp, #0
    SystemCoreClockUpdate();
 8000490:	f000 f8c2 	bl	8000618 <SystemCoreClockUpdate>
    RCC_Configuration();
 8000494:	f7ff fe9e 	bl	80001d4 <RCC_Configuration>
    GPIO_Configuration();
 8000498:	f7ff feb2 	bl	8000200 <GPIO_Configuration>
    USART2_Configuration();
 800049c:	f7ff fee4 	bl	8000268 <USART2_Configuration>
    TIM2_Configuration();
 80004a0:	f7ff ff24 	bl	80002ec <TIM2_Configuration>

    OutString("Welcome to Nucleo F401RE\r\n");
 80004a4:	4802      	ldr	r0, [pc, #8]	; (80004b0 <main+0x24>)
 80004a6:	f7ff feff 	bl	80002a8 <OutString>

    while(1)
    {
        Send_NumberPress();
 80004aa:	f7ff ff9d 	bl	80003e8 <Send_NumberPress>
 80004ae:	e7fc      	b.n	80004aa <main+0x1e>
 80004b0:	0800144c 	.word	0x0800144c

080004b4 <NMI_Handler>:
/******************************************************************************/
/**
  * @brief This function handles Non maskable interrupt.
  */
void NMI_Handler(void)
{
 80004b4:	b480      	push	{r7}
 80004b6:	af00      	add	r7, sp, #0
  /* USER CODE BEGIN NonMaskableInt_IRQn 0 */

  /* USER CODE END NonMaskableInt_IRQn 0 */
  /* USER CODE BEGIN NonMaskableInt_IRQn 1 */
  while (1)
 80004b8:	e7fe      	b.n	80004b8 <NMI_Handler+0x4>

080004ba <HardFault_Handler>:

/**
  * @brief This function handles Hard fault interrupt.
  */
void HardFault_Handler(void)
{
 80004ba:	b480      	push	{r7}
 80004bc:	af00      	add	r7, sp, #0
  /* USER CODE BEGIN HardFault_IRQn 0 */

  /* USER CODE END HardFault_IRQn 0 */
  while (1)
 80004be:	e7fe      	b.n	80004be <HardFault_Handler+0x4>

080004c0 <MemManage_Handler>:

/**
  * @brief This function handles Memory management fault.
  */
void MemManage_Handler(void)
{
 80004c0:	b480      	push	{r7}
 80004c2:	af00      	add	r7, sp, #0
  /* USER CODE BEGIN MemoryManagement_IRQn 0 */

  /* USER CODE END MemoryManagement_IRQn 0 */
  while (1)
 80004c4:	e7fe      	b.n	80004c4 <MemManage_Handler+0x4>

080004c6 <BusFault_Handler>:

/**
  * @brief This function handles Pre-fetch fault, memory access fault.
  */
void BusFault_Handler(void)
{
 80004c6:	b480      	push	{r7}
 80004c8:	af00      	add	r7, sp, #0
  /* USER CODE BEGIN BusFault_IRQn 0 */

  /* USER CODE END BusFault_IRQn 0 */
  while (1)
 80004ca:	e7fe      	b.n	80004ca <BusFault_Handler+0x4>

080004cc <UsageFault_Handler>:

/**
  * @brief This function handles Undefined instruction or illegal state.
  */
void UsageFault_Handler(void)
{
 80004cc:	b480      	push	{r7}
 80004ce:	af00      	add	r7, sp, #0
  /* USER CODE BEGIN UsageFault_IRQn 0 */

  /* USER CODE END UsageFault_IRQn 0 */
  while (1)
 80004d0:	e7fe      	b.n	80004d0 <UsageFault_Handler+0x4>

080004d2 <SVC_Handler>:

/**
  * @brief This function handles System service call via SWI instruction.
  */
void SVC_Handler(void)
{
 80004d2:	b480      	push	{r7}
 80004d4:	af00      	add	r7, sp, #0

  /* USER CODE END SVCall_IRQn 0 */
  /* USER CODE BEGIN SVCall_IRQn 1 */

  /* USER CODE END SVCall_IRQn 1 */
}
 80004d6:	bf00      	nop
 80004d8:	46bd      	mov	sp, r7
 80004da:	f85d 7b04 	ldr.w	r7, [sp], #4
 80004de:	4770      	bx	lr

080004e0 <DebugMon_Handler>:

/**
  * @brief This function handles Debug monitor.
  */
void DebugMon_Handler(void)
{
 80004e0:	b480      	push	{r7}
 80004e2:	af00      	add	r7, sp, #0

  /* USER CODE END DebugMonitor_IRQn 0 */
  /* USER CODE BEGIN DebugMonitor_IRQn 1 */

  /* USER CODE END DebugMonitor_IRQn 1 */
}
 80004e4:	bf00      	nop
 80004e6:	46bd      	mov	sp, r7
 80004e8:	f85d 7b04 	ldr.w	r7, [sp], #4
 80004ec:	4770      	bx	lr

080004ee <PendSV_Handler>:

/**
  * @brief This function handles Pendable request for system service.
  */
void PendSV_Handler(void)
{
 80004ee:	b480      	push	{r7}
 80004f0:	af00      	add	r7, sp, #0

  /* USER CODE END PendSV_IRQn 0 */
  /* USER CODE BEGIN PendSV_IRQn 1 */

  /* USER CODE END PendSV_IRQn 1 */
}
 80004f2:	bf00      	nop
 80004f4:	46bd      	mov	sp, r7
 80004f6:	f85d 7b04 	ldr.w	r7, [sp], #4
 80004fa:	4770      	bx	lr

080004fc <SysTick_Handler>:

/**
  * @brief This function handles System tick timer.
  */
void SysTick_Handler(void)
{
 80004fc:	b580      	push	{r7, lr}
 80004fe:	af00      	add	r7, sp, #0
  /* USER CODE BEGIN SysTick_IRQn 0 */

  /* USER CODE END SysTick_IRQn 0 */
  HAL_IncTick();
 8000500:	f000 f840 	bl	8000584 <HAL_IncTick>
  /* USER CODE BEGIN SysTick_IRQn 1 */

  /* USER CODE END SysTick_IRQn 1 */
}
 8000504:	bf00      	nop
 8000506:	bd80      	pop	{r7, pc}

08000508 <USART2_IRQHandler>:
//}
/**
  * @brief This function handles USART2 global interrupt.
  */
void USART2_IRQHandler(void)
{
 8000508:	b480      	push	{r7}
 800050a:	b083      	sub	sp, #12
 800050c:	af00      	add	r7, sp, #0
  /* USER CODE BEGIN USART2_IRQn 0 */

  // 1. Kiểm tra cờ ngắt nhận (RXNE) bằng thanh ghi
  if ((USART2->SR & (1 << 5)) != 0)
 800050e:	4b07      	ldr	r3, [pc, #28]	; (800052c <USART2_IRQHandler+0x24>)
 8000510:	681b      	ldr	r3, [r3, #0]
 8000512:	f003 0320 	and.w	r3, r3, #32
 8000516:	2b00      	cmp	r3, #0
 8000518:	d002      	beq.n	8000520 <USART2_IRQHandler+0x18>
  {
      // 2. Đọc dữ liệu ra để tự động xóa cờ ngắt (chống treo chip)
      uint8_t data = (uint8_t)USART2->DR;
 800051a:	4b04      	ldr	r3, [pc, #16]	; (800052c <USART2_IRQHandler+0x24>)
 800051c:	685b      	ldr	r3, [r3, #4]
 800051e:	71fb      	strb	r3, [r7, #7]
  // HAL_UART_IRQHandler(&huart2);

  /* USER CODE BEGIN USART2_IRQn 1 */

  /* USER CODE END USART2_IRQn 1 */
}
 8000520:	bf00      	nop
 8000522:	370c      	adds	r7, #12
 8000524:	46bd      	mov	sp, r7
 8000526:	f85d 7b04 	ldr.w	r7, [sp], #4
 800052a:	4770      	bx	lr
 800052c:	40004400 	.word	0x40004400

08000530 <Reset_Handler>:

    .section  .text.Reset_Handler
  .weak  Reset_Handler
  .type  Reset_Handler, %function
Reset_Handler:  
  ldr   sp, =_estack    		 /* set stack pointer */
 8000530:	f8df d034 	ldr.w	sp, [pc, #52]	; 8000568 <LoopFillZerobss+0x12>

/* Copy the data segment initializers from flash to SRAM */  
  ldr r0, =_sdata
 8000534:	480d      	ldr	r0, [pc, #52]	; (800056c <LoopFillZerobss+0x16>)
  ldr r1, =_edata
 8000536:	490e      	ldr	r1, [pc, #56]	; (8000570 <LoopFillZerobss+0x1a>)
  ldr r2, =_sidata
 8000538:	4a0e      	ldr	r2, [pc, #56]	; (8000574 <LoopFillZerobss+0x1e>)
  movs r3, #0
 800053a:	2300      	movs	r3, #0
  b LoopCopyDataInit
 800053c:	e002      	b.n	8000544 <LoopCopyDataInit>

0800053e <CopyDataInit>:

CopyDataInit:
  ldr r4, [r2, r3]
 800053e:	58d4      	ldr	r4, [r2, r3]
  str r4, [r0, r3]
 8000540:	50c4      	str	r4, [r0, r3]
  adds r3, r3, #4
 8000542:	3304      	adds	r3, #4

08000544 <LoopCopyDataInit>:

LoopCopyDataInit:
  adds r4, r0, r3
 8000544:	18c4      	adds	r4, r0, r3
  cmp r4, r1
 8000546:	428c      	cmp	r4, r1
  bcc CopyDataInit
 8000548:	d3f9      	bcc.n	800053e <CopyDataInit>
  
/* Zero fill the bss segment. */
  ldr r2, =_sbss
 800054a:	4a0b      	ldr	r2, [pc, #44]	; (8000578 <LoopFillZerobss+0x22>)
  ldr r4, =_ebss
 800054c:	4c0b      	ldr	r4, [pc, #44]	; (800057c <LoopFillZerobss+0x26>)
  movs r3, #0
 800054e:	2300      	movs	r3, #0
  b LoopFillZerobss
 8000550:	e001      	b.n	8000556 <LoopFillZerobss>

08000552 <FillZerobss>:

FillZerobss:
  str  r3, [r2]
 8000552:	6013      	str	r3, [r2, #0]
  adds r2, r2, #4
 8000554:	3204      	adds	r2, #4

08000556 <LoopFillZerobss>:

LoopFillZerobss:
  cmp r2, r4
 8000556:	42a2      	cmp	r2, r4
  bcc FillZerobss
 8000558:	d3fb      	bcc.n	8000552 <FillZerobss>

/* Call the clock system intitialization function.*/
  bl  SystemInit   
 800055a:	f000 f827 	bl	80005ac <SystemInit>
/* Call static constructors */
    bl __libc_init_array
 800055e:	f000 ff45 	bl	80013ec <__libc_init_array>
/* Call the application's entry point.*/
  bl  main
 8000562:	f7ff ff93 	bl	800048c <main>
  bx  lr    
 8000566:	4770      	bx	lr
  ldr   sp, =_estack    		 /* set stack pointer */
 8000568:	20018000 	.word	0x20018000
  ldr r0, =_sdata
 800056c:	20000000 	.word	0x20000000
  ldr r1, =_edata
 8000570:	20000028 	.word	0x20000028
  ldr r2, =_sidata
 8000574:	08001470 	.word	0x08001470
  ldr r2, =_sbss
 8000578:	20000028 	.word	0x20000028
  ldr r4, =_ebss
 800057c:	20000058 	.word	0x20000058

08000580 <ADC_IRQHandler>:
 * @retval None       
*/
    .section  .text.Default_Handler,"ax",%progbits
Default_Handler:
Infinite_Loop:
  b  Infinite_Loop
 8000580:	e7fe      	b.n	8000580 <ADC_IRQHandler>
	...

08000584 <HAL_IncTick>:
 * @note This function is declared as __weak to be overwritten in case of other 
  *      implementations in user file.
  * @retval None
  */
__weak void HAL_IncTick(void)
{
 8000584:	b480      	push	{r7}
 8000586:	af00      	add	r7, sp, #0
  uwTick += uwTickFreq;
 8000588:	4b06      	ldr	r3, [pc, #24]	; (80005a4 <HAL_IncTick+0x20>)
 800058a:	781b      	ldrb	r3, [r3, #0]
 800058c:	461a      	mov	r2, r3
 800058e:	4b06      	ldr	r3, [pc, #24]	; (80005a8 <HAL_IncTick+0x24>)
 8000590:	681b      	ldr	r3, [r3, #0]
 8000592:	4413      	add	r3, r2
 8000594:	4a04      	ldr	r2, [pc, #16]	; (80005a8 <HAL_IncTick+0x24>)
 8000596:	6013      	str	r3, [r2, #0]
}
 8000598:	bf00      	nop
 800059a:	46bd      	mov	sp, r7
 800059c:	f85d 7b04 	ldr.w	r7, [sp], #4
 80005a0:	4770      	bx	lr
 80005a2:	bf00      	nop
 80005a4:	20000000 	.word	0x20000000
 80005a8:	20000054 	.word	0x20000054

080005ac <SystemInit>:
  *         SystemFrequency variable.
  * @param  None
  * @retval None
  */
void SystemInit(void)
{
 80005ac:	b580      	push	{r7, lr}
 80005ae:	af00      	add	r7, sp, #0
  /* FPU settings ------------------------------------------------------------*/
  #if (__FPU_PRESENT == 1) && (__FPU_USED == 1)
    SCB->CPACR |= ((3UL << 10*2)|(3UL << 11*2));  /* set CP10 and CP11 Full Access */
 80005b0:	4b16      	ldr	r3, [pc, #88]	; (800060c <SystemInit+0x60>)
 80005b2:	f8d3 3088 	ldr.w	r3, [r3, #136]	; 0x88
 80005b6:	4a15      	ldr	r2, [pc, #84]	; (800060c <SystemInit+0x60>)
 80005b8:	f443 0370 	orr.w	r3, r3, #15728640	; 0xf00000
 80005bc:	f8c2 3088 	str.w	r3, [r2, #136]	; 0x88
  #endif
  /* Reset the RCC clock configuration to the default reset state ------------*/
  /* Set HSION bit */
  RCC->CR |= (uint32_t)0x00000001;
 80005c0:	4b13      	ldr	r3, [pc, #76]	; (8000610 <SystemInit+0x64>)
 80005c2:	681b      	ldr	r3, [r3, #0]
 80005c4:	4a12      	ldr	r2, [pc, #72]	; (8000610 <SystemInit+0x64>)
 80005c6:	f043 0301 	orr.w	r3, r3, #1
 80005ca:	6013      	str	r3, [r2, #0]

  /* Reset CFGR register */
  RCC->CFGR = 0x00000000;
 80005cc:	4b10      	ldr	r3, [pc, #64]	; (8000610 <SystemInit+0x64>)
 80005ce:	2200      	movs	r2, #0
 80005d0:	609a      	str	r2, [r3, #8]

  /* Reset HSEON, CSSON and PLLON bits */
  RCC->CR &= (uint32_t)0xFEF6FFFF;
 80005d2:	4b0f      	ldr	r3, [pc, #60]	; (8000610 <SystemInit+0x64>)
 80005d4:	681b      	ldr	r3, [r3, #0]
 80005d6:	4a0e      	ldr	r2, [pc, #56]	; (8000610 <SystemInit+0x64>)
 80005d8:	f023 7384 	bic.w	r3, r3, #17301504	; 0x1080000
 80005dc:	f423 3380 	bic.w	r3, r3, #65536	; 0x10000
 80005e0:	6013      	str	r3, [r2, #0]

  /* Reset PLLCFGR register */
  RCC->PLLCFGR = 0x24003010;
 80005e2:	4b0b      	ldr	r3, [pc, #44]	; (8000610 <SystemInit+0x64>)
 80005e4:	4a0b      	ldr	r2, [pc, #44]	; (8000614 <SystemInit+0x68>)
 80005e6:	605a      	str	r2, [r3, #4]

  /* Reset HSEBYP bit */
  RCC->CR &= (uint32_t)0xFFFBFFFF;
 80005e8:	4b09      	ldr	r3, [pc, #36]	; (8000610 <SystemInit+0x64>)
 80005ea:	681b      	ldr	r3, [r3, #0]
 80005ec:	4a08      	ldr	r2, [pc, #32]	; (8000610 <SystemInit+0x64>)
 80005ee:	f423 2380 	bic.w	r3, r3, #262144	; 0x40000
 80005f2:	6013      	str	r3, [r2, #0]

  /* Disable all interrupts */
  RCC->CIR = 0x00000000;
 80005f4:	4b06      	ldr	r3, [pc, #24]	; (8000610 <SystemInit+0x64>)
 80005f6:	2200      	movs	r2, #0
 80005f8:	60da      	str	r2, [r3, #12]
  SystemInit_ExtMemCtl(); 
#endif /* DATA_IN_ExtSRAM */
         
  /* Configure the System clock source, PLL Multiplier and Divider factors, 
     AHB/APBx prescalers and Flash settings ----------------------------------*/
  SetSysClock();
 80005fa:	f000 f88f 	bl	800071c <SetSysClock>

  /* Configure the Vector Table location add offset address ------------------*/
#ifdef VECT_TAB_SRAM
  SCB->VTOR = SRAM_BASE | VECT_TAB_OFFSET; /* Vector Table Relocation in Internal SRAM */
#else
  SCB->VTOR = FLASH_BASE | VECT_TAB_OFFSET; /* Vector Table Relocation in Internal FLASH */
 80005fe:	4b03      	ldr	r3, [pc, #12]	; (800060c <SystemInit+0x60>)
 8000600:	f04f 6200 	mov.w	r2, #134217728	; 0x8000000
 8000604:	609a      	str	r2, [r3, #8]
#endif
}
 8000606:	bf00      	nop
 8000608:	bd80      	pop	{r7, pc}
 800060a:	bf00      	nop
 800060c:	e000ed00 	.word	0xe000ed00
 8000610:	40023800 	.word	0x40023800
 8000614:	24003010 	.word	0x24003010

08000618 <SystemCoreClockUpdate>:
  *     
  * @param  None
  * @retval None
  */
void SystemCoreClockUpdate(void)
{
 8000618:	b480      	push	{r7}
 800061a:	b087      	sub	sp, #28
 800061c:	af00      	add	r7, sp, #0
  uint32_t tmp = 0, pllvco = 0, pllp = 2, pllsource = 0, pllm = 2;
 800061e:	2300      	movs	r3, #0
 8000620:	613b      	str	r3, [r7, #16]
 8000622:	2300      	movs	r3, #0
 8000624:	617b      	str	r3, [r7, #20]
 8000626:	2302      	movs	r3, #2
 8000628:	60fb      	str	r3, [r7, #12]
 800062a:	2300      	movs	r3, #0
 800062c:	60bb      	str	r3, [r7, #8]
 800062e:	2302      	movs	r3, #2
 8000630:	607b      	str	r3, [r7, #4]

  /* Get SYSCLK source -------------------------------------------------------*/
  tmp = RCC->CFGR & RCC_CFGR_SWS;
 8000632:	4b35      	ldr	r3, [pc, #212]	; (8000708 <SystemCoreClockUpdate+0xf0>)
 8000634:	689b      	ldr	r3, [r3, #8]
 8000636:	f003 030c 	and.w	r3, r3, #12
 800063a:	613b      	str	r3, [r7, #16]

  switch (tmp)
 800063c:	693b      	ldr	r3, [r7, #16]
 800063e:	2b08      	cmp	r3, #8
 8000640:	d011      	beq.n	8000666 <SystemCoreClockUpdate+0x4e>
 8000642:	693b      	ldr	r3, [r7, #16]
 8000644:	2b08      	cmp	r3, #8
 8000646:	d844      	bhi.n	80006d2 <SystemCoreClockUpdate+0xba>
 8000648:	693b      	ldr	r3, [r7, #16]
 800064a:	2b00      	cmp	r3, #0
 800064c:	d003      	beq.n	8000656 <SystemCoreClockUpdate+0x3e>
 800064e:	693b      	ldr	r3, [r7, #16]
 8000650:	2b04      	cmp	r3, #4
 8000652:	d004      	beq.n	800065e <SystemCoreClockUpdate+0x46>
 8000654:	e03d      	b.n	80006d2 <SystemCoreClockUpdate+0xba>
  {
    case 0x00:  /* HSI used as system clock source */
      SystemCoreClock = HSI_VALUE;
 8000656:	4b2d      	ldr	r3, [pc, #180]	; (800070c <SystemCoreClockUpdate+0xf4>)
 8000658:	4a2d      	ldr	r2, [pc, #180]	; (8000710 <SystemCoreClockUpdate+0xf8>)
 800065a:	601a      	str	r2, [r3, #0]
      break;
 800065c:	e03d      	b.n	80006da <SystemCoreClockUpdate+0xc2>
    case 0x04:  /* HSE used as system clock source */
      SystemCoreClock = HSE_VALUE;
 800065e:	4b2b      	ldr	r3, [pc, #172]	; (800070c <SystemCoreClockUpdate+0xf4>)
 8000660:	4a2c      	ldr	r2, [pc, #176]	; (8000714 <SystemCoreClockUpdate+0xfc>)
 8000662:	601a      	str	r2, [r3, #0]
      break;
 8000664:	e039      	b.n	80006da <SystemCoreClockUpdate+0xc2>
    case 0x08:  /* PLL used as system clock source */

      /* PLL_VCO = (HSE_VALUE or HSI_VALUE / PLL_M) * PLL_N
         SYSCLK = PLL_VCO / PLL_P
         */    
      pllsource = (RCC->PLLCFGR & RCC_PLLCFGR_PLLSRC) >> 22;
 8000666:	4b28      	ldr	r3, [pc, #160]	; (8000708 <SystemCoreClockUpdate+0xf0>)
 8000668:	685b      	ldr	r3, [r3, #4]
 800066a:	0d9b      	lsrs	r3, r3, #22
 800066c:	f003 0301 	and.w	r3, r3, #1
 8000670:	60bb      	str	r3, [r7, #8]
      pllm = RCC->PLLCFGR & RCC_PLLCFGR_PLLM;
 8000672:	4b25      	ldr	r3, [pc, #148]	; (8000708 <SystemCoreClockUpdate+0xf0>)
 8000674:	685b      	ldr	r3, [r3, #4]
 8000676:	f003 033f 	and.w	r3, r3, #63	; 0x3f
 800067a:	607b      	str	r3, [r7, #4]
      
      if (pllsource != 0)
 800067c:	68bb      	ldr	r3, [r7, #8]
 800067e:	2b00      	cmp	r3, #0
 8000680:	d00c      	beq.n	800069c <SystemCoreClockUpdate+0x84>
      {
        /* HSE used as PLL clock source */
        pllvco = (HSE_VALUE / pllm) * ((RCC->PLLCFGR & RCC_PLLCFGR_PLLN) >> 6);
 8000682:	4a24      	ldr	r2, [pc, #144]	; (8000714 <SystemCoreClockUpdate+0xfc>)
 8000684:	687b      	ldr	r3, [r7, #4]
 8000686:	fbb2 f3f3 	udiv	r3, r2, r3
 800068a:	4a1f      	ldr	r2, [pc, #124]	; (8000708 <SystemCoreClockUpdate+0xf0>)
 800068c:	6852      	ldr	r2, [r2, #4]
 800068e:	0992      	lsrs	r2, r2, #6
 8000690:	f3c2 0208 	ubfx	r2, r2, #0, #9
 8000694:	fb02 f303 	mul.w	r3, r2, r3
 8000698:	617b      	str	r3, [r7, #20]
 800069a:	e00b      	b.n	80006b4 <SystemCoreClockUpdate+0x9c>
      }
      else
      {
        /* HSI used as PLL clock source */
        pllvco = (HSI_VALUE / pllm) * ((RCC->PLLCFGR & RCC_PLLCFGR_PLLN) >> 6);
 800069c:	4a1c      	ldr	r2, [pc, #112]	; (8000710 <SystemCoreClockUpdate+0xf8>)
 800069e:	687b      	ldr	r3, [r7, #4]
 80006a0:	fbb2 f3f3 	udiv	r3, r2, r3
 80006a4:	4a18      	ldr	r2, [pc, #96]	; (8000708 <SystemCoreClockUpdate+0xf0>)
 80006a6:	6852      	ldr	r2, [r2, #4]
 80006a8:	0992      	lsrs	r2, r2, #6
 80006aa:	f3c2 0208 	ubfx	r2, r2, #0, #9
 80006ae:	fb02 f303 	mul.w	r3, r2, r3
 80006b2:	617b      	str	r3, [r7, #20]
      }

      pllp = (((RCC->PLLCFGR & RCC_PLLCFGR_PLLP) >>16) + 1 ) *2;
 80006b4:	4b14      	ldr	r3, [pc, #80]	; (8000708 <SystemCoreClockUpdate+0xf0>)
 80006b6:	685b      	ldr	r3, [r3, #4]
 80006b8:	0c1b      	lsrs	r3, r3, #16
 80006ba:	f003 0303 	and.w	r3, r3, #3
 80006be:	3301      	adds	r3, #1
 80006c0:	005b      	lsls	r3, r3, #1
 80006c2:	60fb      	str	r3, [r7, #12]
      SystemCoreClock = pllvco/pllp;
 80006c4:	697a      	ldr	r2, [r7, #20]
 80006c6:	68fb      	ldr	r3, [r7, #12]
 80006c8:	fbb2 f3f3 	udiv	r3, r2, r3
 80006cc:	4a0f      	ldr	r2, [pc, #60]	; (800070c <SystemCoreClockUpdate+0xf4>)
 80006ce:	6013      	str	r3, [r2, #0]
      break;
 80006d0:	e003      	b.n	80006da <SystemCoreClockUpdate+0xc2>
    default:
      SystemCoreClock = HSI_VALUE;
 80006d2:	4b0e      	ldr	r3, [pc, #56]	; (800070c <SystemCoreClockUpdate+0xf4>)
 80006d4:	4a0e      	ldr	r2, [pc, #56]	; (8000710 <SystemCoreClockUpdate+0xf8>)
 80006d6:	601a      	str	r2, [r3, #0]
      break;
 80006d8:	bf00      	nop
  }
  /* Compute HCLK frequency --------------------------------------------------*/
  /* Get HCLK prescaler */
  tmp = AHBPrescTable[((RCC->CFGR & RCC_CFGR_HPRE) >> 4)];
 80006da:	4b0b      	ldr	r3, [pc, #44]	; (8000708 <SystemCoreClockUpdate+0xf0>)
 80006dc:	689b      	ldr	r3, [r3, #8]
 80006de:	091b      	lsrs	r3, r3, #4
 80006e0:	f003 030f 	and.w	r3, r3, #15
 80006e4:	4a0c      	ldr	r2, [pc, #48]	; (8000718 <SystemCoreClockUpdate+0x100>)
 80006e6:	5cd3      	ldrb	r3, [r2, r3]
 80006e8:	b2db      	uxtb	r3, r3
 80006ea:	613b      	str	r3, [r7, #16]
  /* HCLK frequency */
  SystemCoreClock >>= tmp;
 80006ec:	4b07      	ldr	r3, [pc, #28]	; (800070c <SystemCoreClockUpdate+0xf4>)
 80006ee:	681a      	ldr	r2, [r3, #0]
 80006f0:	693b      	ldr	r3, [r7, #16]
 80006f2:	fa22 f303 	lsr.w	r3, r2, r3
 80006f6:	4a05      	ldr	r2, [pc, #20]	; (800070c <SystemCoreClockUpdate+0xf4>)
 80006f8:	6013      	str	r3, [r2, #0]
}
 80006fa:	bf00      	nop
 80006fc:	371c      	adds	r7, #28
 80006fe:	46bd      	mov	sp, r7
 8000700:	f85d 7b04 	ldr.w	r7, [sp], #4
 8000704:	4770      	bx	lr
 8000706:	bf00      	nop
 8000708:	40023800 	.word	0x40023800
 800070c:	20000004 	.word	0x20000004
 8000710:	00f42400 	.word	0x00f42400
 8000714:	017d7840 	.word	0x017d7840
 8000718:	20000008 	.word	0x20000008

0800071c <SetSysClock>:
  *         is reset to the default reset state (done in SystemInit() function).   
  * @param  None
  * @retval None
  */
static void SetSysClock(void)
{
 800071c:	b480      	push	{r7}
 800071e:	af00      	add	r7, sp, #0
/******************************************************************************/

  /* At this stage the HSI is already enabled and used as System clock source */

    /* Select regulator voltage output Scale 1 mode, System frequency up to 168 MHz */
    RCC->APB1ENR |= RCC_APB1ENR_PWREN;
 8000720:	4b23      	ldr	r3, [pc, #140]	; (80007b0 <SetSysClock+0x94>)
 8000722:	6c1b      	ldr	r3, [r3, #64]	; 0x40
 8000724:	4a22      	ldr	r2, [pc, #136]	; (80007b0 <SetSysClock+0x94>)
 8000726:	f043 5380 	orr.w	r3, r3, #268435456	; 0x10000000
 800072a:	6413      	str	r3, [r2, #64]	; 0x40
    PWR->CR |= PWR_CR_VOS;
 800072c:	4b21      	ldr	r3, [pc, #132]	; (80007b4 <SetSysClock+0x98>)
 800072e:	681b      	ldr	r3, [r3, #0]
 8000730:	4a20      	ldr	r2, [pc, #128]	; (80007b4 <SetSysClock+0x98>)
 8000732:	f443 4340 	orr.w	r3, r3, #49152	; 0xc000
 8000736:	6013      	str	r3, [r2, #0]

  /* HCLK = SYSCLK / 1*/
  RCC->CFGR |= RCC_CFGR_HPRE_DIV1;
 8000738:	4b1d      	ldr	r3, [pc, #116]	; (80007b0 <SetSysClock+0x94>)
 800073a:	4a1d      	ldr	r2, [pc, #116]	; (80007b0 <SetSysClock+0x94>)
 800073c:	689b      	ldr	r3, [r3, #8]
 800073e:	6093      	str	r3, [r2, #8]

  /* PCLK2 = HCLK / 1*/
  RCC->CFGR |= RCC_CFGR_PPRE2_DIV1;
 8000740:	4b1b      	ldr	r3, [pc, #108]	; (80007b0 <SetSysClock+0x94>)
 8000742:	4a1b      	ldr	r2, [pc, #108]	; (80007b0 <SetSysClock+0x94>)
 8000744:	689b      	ldr	r3, [r3, #8]
 8000746:	6093      	str	r3, [r2, #8]
    
  /* PCLK1 = HCLK / 1*/
  RCC->CFGR |= RCC_CFGR_PPRE1_DIV2;
 8000748:	4b19      	ldr	r3, [pc, #100]	; (80007b0 <SetSysClock+0x94>)
 800074a:	689b      	ldr	r3, [r3, #8]
 800074c:	4a18      	ldr	r2, [pc, #96]	; (80007b0 <SetSysClock+0x94>)
 800074e:	f443 5380 	orr.w	r3, r3, #4096	; 0x1000
 8000752:	6093      	str	r3, [r2, #8]

  /* Configure the main PLL */
  RCC->PLLCFGR = PLL_M | (PLL_N << 6) | (((PLL_P >> 1) -1) << 16) |
 8000754:	4b16      	ldr	r3, [pc, #88]	; (80007b0 <SetSysClock+0x94>)
 8000756:	4a18      	ldr	r2, [pc, #96]	; (80007b8 <SetSysClock+0x9c>)
 8000758:	605a      	str	r2, [r3, #4]
                 (RCC_PLLCFGR_PLLSRC_HSI) | (PLL_Q << 24);

  /* Enable the main PLL */
  RCC->CR |= RCC_CR_PLLON;
 800075a:	4b15      	ldr	r3, [pc, #84]	; (80007b0 <SetSysClock+0x94>)
 800075c:	681b      	ldr	r3, [r3, #0]
 800075e:	4a14      	ldr	r2, [pc, #80]	; (80007b0 <SetSysClock+0x94>)
 8000760:	f043 7380 	orr.w	r3, r3, #16777216	; 0x1000000
 8000764:	6013      	str	r3, [r2, #0]

  /* Wait till the main PLL is ready */
  while((RCC->CR & RCC_CR_PLLRDY) == 0)
 8000766:	bf00      	nop
 8000768:	4b11      	ldr	r3, [pc, #68]	; (80007b0 <SetSysClock+0x94>)
 800076a:	681b      	ldr	r3, [r3, #0]
 800076c:	f003 7300 	and.w	r3, r3, #33554432	; 0x2000000
 8000770:	2b00      	cmp	r3, #0
 8000772:	d0f9      	beq.n	8000768 <SetSysClock+0x4c>
  {
  }
   
  /* Configure Flash prefetch, Instruction cache, Data cache and wait state */
  FLASH->ACR = FLASH_ACR_ICEN |FLASH_ACR_DCEN |FLASH_ACR_LATENCY_2WS;
 8000774:	4b11      	ldr	r3, [pc, #68]	; (80007bc <SetSysClock+0xa0>)
 8000776:	f240 6202 	movw	r2, #1538	; 0x602
 800077a:	601a      	str	r2, [r3, #0]

  /* Select the main PLL as system clock source */
  RCC->CFGR &= (uint32_t)((uint32_t)~(RCC_CFGR_SW));
 800077c:	4b0c      	ldr	r3, [pc, #48]	; (80007b0 <SetSysClock+0x94>)
 800077e:	689b      	ldr	r3, [r3, #8]
 8000780:	4a0b      	ldr	r2, [pc, #44]	; (80007b0 <SetSysClock+0x94>)
 8000782:	f023 0303 	bic.w	r3, r3, #3
 8000786:	6093      	str	r3, [r2, #8]
  RCC->CFGR |= RCC_CFGR_SW_PLL;
 8000788:	4b09      	ldr	r3, [pc, #36]	; (80007b0 <SetSysClock+0x94>)
 800078a:	689b      	ldr	r3, [r3, #8]
 800078c:	4a08      	ldr	r2, [pc, #32]	; (80007b0 <SetSysClock+0x94>)
 800078e:	f043 0302 	orr.w	r3, r3, #2
 8000792:	6093      	str	r3, [r2, #8]

  /* Wait till the main PLL is used as system clock source */
  while ((RCC->CFGR & (uint32_t)RCC_CFGR_SWS ) != RCC_CFGR_SWS_PLL);
 8000794:	bf00      	nop
 8000796:	4b06      	ldr	r3, [pc, #24]	; (80007b0 <SetSysClock+0x94>)
 8000798:	689b      	ldr	r3, [r3, #8]
 800079a:	f003 030c 	and.w	r3, r3, #12
 800079e:	2b08      	cmp	r3, #8
 80007a0:	d1f9      	bne.n	8000796 <SetSysClock+0x7a>
}
 80007a2:	bf00      	nop
 80007a4:	bf00      	nop
 80007a6:	46bd      	mov	sp, r7
 80007a8:	f85d 7b04 	ldr.w	r7, [sp], #4
 80007ac:	4770      	bx	lr
 80007ae:	bf00      	nop
 80007b0:	40023800 	.word	0x40023800
 80007b4:	40007000 	.word	0x40007000
 80007b8:	08015410 	.word	0x08015410
 80007bc:	40023c00 	.word	0x40023c00

080007c0 <GPIO_Init>:
  * @param  GPIO_InitStruct: pointer to a GPIO_InitTypeDef structure that contains
  *         the configuration information for the specified GPIO peripheral.
  * @retval None
  */
void GPIO_Init(GPIO_TypeDef* GPIOx, GPIO_InitTypeDef* GPIO_InitStruct)
{
 80007c0:	b480      	push	{r7}
 80007c2:	b087      	sub	sp, #28
 80007c4:	af00      	add	r7, sp, #0
 80007c6:	6078      	str	r0, [r7, #4]
 80007c8:	6039      	str	r1, [r7, #0]
  uint32_t pinpos = 0x00, pos = 0x00 , currentpin = 0x00;
 80007ca:	2300      	movs	r3, #0
 80007cc:	617b      	str	r3, [r7, #20]
 80007ce:	2300      	movs	r3, #0
 80007d0:	613b      	str	r3, [r7, #16]
 80007d2:	2300      	movs	r3, #0
 80007d4:	60fb      	str	r3, [r7, #12]

  /* ------------------------- Configure the port pins ---------------- */
  /*-- GPIO Mode Configuration --*/
  for (pinpos = 0x00; pinpos < 0x10; pinpos++)
 80007d6:	2300      	movs	r3, #0
 80007d8:	617b      	str	r3, [r7, #20]
 80007da:	e076      	b.n	80008ca <GPIO_Init+0x10a>
  {
    pos = ((uint32_t)0x01) << pinpos;
 80007dc:	2201      	movs	r2, #1
 80007de:	697b      	ldr	r3, [r7, #20]
 80007e0:	fa02 f303 	lsl.w	r3, r2, r3
 80007e4:	613b      	str	r3, [r7, #16]
    /* Get the port pins position */
    currentpin = (GPIO_InitStruct->GPIO_Pin) & pos;
 80007e6:	683b      	ldr	r3, [r7, #0]
 80007e8:	681b      	ldr	r3, [r3, #0]
 80007ea:	693a      	ldr	r2, [r7, #16]
 80007ec:	4013      	ands	r3, r2
 80007ee:	60fb      	str	r3, [r7, #12]

    if (currentpin == pos)
 80007f0:	68fa      	ldr	r2, [r7, #12]
 80007f2:	693b      	ldr	r3, [r7, #16]
 80007f4:	429a      	cmp	r2, r3
 80007f6:	d165      	bne.n	80008c4 <GPIO_Init+0x104>
    {
      GPIOx->MODER  &= ~(GPIO_MODER_MODER0 << (pinpos * 2));
 80007f8:	687b      	ldr	r3, [r7, #4]
 80007fa:	681a      	ldr	r2, [r3, #0]
 80007fc:	697b      	ldr	r3, [r7, #20]
 80007fe:	005b      	lsls	r3, r3, #1
 8000800:	2103      	movs	r1, #3
 8000802:	fa01 f303 	lsl.w	r3, r1, r3
 8000806:	43db      	mvns	r3, r3
 8000808:	401a      	ands	r2, r3
 800080a:	687b      	ldr	r3, [r7, #4]
 800080c:	601a      	str	r2, [r3, #0]
      GPIOx->MODER |= (((uint32_t)GPIO_InitStruct->GPIO_Mode) << (pinpos * 2));
 800080e:	687b      	ldr	r3, [r7, #4]
 8000810:	681a      	ldr	r2, [r3, #0]
 8000812:	683b      	ldr	r3, [r7, #0]
 8000814:	791b      	ldrb	r3, [r3, #4]
 8000816:	4619      	mov	r1, r3
 8000818:	697b      	ldr	r3, [r7, #20]
 800081a:	005b      	lsls	r3, r3, #1
 800081c:	fa01 f303 	lsl.w	r3, r1, r3
 8000820:	431a      	orrs	r2, r3
 8000822:	687b      	ldr	r3, [r7, #4]
 8000824:	601a      	str	r2, [r3, #0]

      if ((GPIO_InitStruct->GPIO_Mode == GPIO_Mode_OUT) || (GPIO_InitStruct->GPIO_Mode == GPIO_Mode_AF))
 8000826:	683b      	ldr	r3, [r7, #0]
 8000828:	791b      	ldrb	r3, [r3, #4]
 800082a:	2b01      	cmp	r3, #1
 800082c:	d003      	beq.n	8000836 <GPIO_Init+0x76>
 800082e:	683b      	ldr	r3, [r7, #0]
 8000830:	791b      	ldrb	r3, [r3, #4]
 8000832:	2b02      	cmp	r3, #2
 8000834:	d12e      	bne.n	8000894 <GPIO_Init+0xd4>
      {
        /* Speed mode configuration */
        GPIOx->OSPEEDR &= ~(GPIO_OSPEEDER_OSPEEDR0 << (pinpos * 2));
 8000836:	687b      	ldr	r3, [r7, #4]
 8000838:	689a      	ldr	r2, [r3, #8]
 800083a:	697b      	ldr	r3, [r7, #20]
 800083c:	005b      	lsls	r3, r3, #1
 800083e:	2103      	movs	r1, #3
 8000840:	fa01 f303 	lsl.w	r3, r1, r3
 8000844:	43db      	mvns	r3, r3
 8000846:	401a      	ands	r2, r3
 8000848:	687b      	ldr	r3, [r7, #4]
 800084a:	609a      	str	r2, [r3, #8]
        GPIOx->OSPEEDR |= ((uint32_t)(GPIO_InitStruct->GPIO_Speed) << (pinpos * 2));
 800084c:	687b      	ldr	r3, [r7, #4]
 800084e:	689a      	ldr	r2, [r3, #8]
 8000850:	683b      	ldr	r3, [r7, #0]
 8000852:	795b      	ldrb	r3, [r3, #5]
 8000854:	4619      	mov	r1, r3
 8000856:	697b      	ldr	r3, [r7, #20]
 8000858:	005b      	lsls	r3, r3, #1
 800085a:	fa01 f303 	lsl.w	r3, r1, r3
 800085e:	431a      	orrs	r2, r3
 8000860:	687b      	ldr	r3, [r7, #4]
 8000862:	609a      	str	r2, [r3, #8]

        /* Output mode configuration*/
        GPIOx->OTYPER  &= ~((GPIO_OTYPER_OT_0) << ((uint16_t)pinpos)) ;
 8000864:	687b      	ldr	r3, [r7, #4]
 8000866:	685a      	ldr	r2, [r3, #4]
 8000868:	697b      	ldr	r3, [r7, #20]
 800086a:	b29b      	uxth	r3, r3
 800086c:	4619      	mov	r1, r3
 800086e:	2301      	movs	r3, #1
 8000870:	408b      	lsls	r3, r1
 8000872:	43db      	mvns	r3, r3
 8000874:	401a      	ands	r2, r3
 8000876:	687b      	ldr	r3, [r7, #4]
 8000878:	605a      	str	r2, [r3, #4]
        GPIOx->OTYPER |= (uint16_t)(((uint16_t)GPIO_InitStruct->GPIO_OType) << ((uint16_t)pinpos));
 800087a:	687b      	ldr	r3, [r7, #4]
 800087c:	685b      	ldr	r3, [r3, #4]
 800087e:	683a      	ldr	r2, [r7, #0]
 8000880:	7992      	ldrb	r2, [r2, #6]
 8000882:	4611      	mov	r1, r2
 8000884:	697a      	ldr	r2, [r7, #20]
 8000886:	b292      	uxth	r2, r2
 8000888:	fa01 f202 	lsl.w	r2, r1, r2
 800088c:	b292      	uxth	r2, r2
 800088e:	431a      	orrs	r2, r3
 8000890:	687b      	ldr	r3, [r7, #4]
 8000892:	605a      	str	r2, [r3, #4]
      }

      /* Pull-up Pull down resistor configuration*/
      GPIOx->PUPDR &= ~(GPIO_PUPDR_PUPDR0 << ((uint16_t)pinpos * 2));
 8000894:	687b      	ldr	r3, [r7, #4]
 8000896:	68da      	ldr	r2, [r3, #12]
 8000898:	697b      	ldr	r3, [r7, #20]
 800089a:	b29b      	uxth	r3, r3
 800089c:	005b      	lsls	r3, r3, #1
 800089e:	2103      	movs	r1, #3
 80008a0:	fa01 f303 	lsl.w	r3, r1, r3
 80008a4:	43db      	mvns	r3, r3
 80008a6:	401a      	ands	r2, r3
 80008a8:	687b      	ldr	r3, [r7, #4]
 80008aa:	60da      	str	r2, [r3, #12]
      GPIOx->PUPDR |= (((uint32_t)GPIO_InitStruct->GPIO_PuPd) << (pinpos * 2));
 80008ac:	687b      	ldr	r3, [r7, #4]
 80008ae:	68da      	ldr	r2, [r3, #12]
 80008b0:	683b      	ldr	r3, [r7, #0]
 80008b2:	79db      	ldrb	r3, [r3, #7]
 80008b4:	4619      	mov	r1, r3
 80008b6:	697b      	ldr	r3, [r7, #20]
 80008b8:	005b      	lsls	r3, r3, #1
 80008ba:	fa01 f303 	lsl.w	r3, r1, r3
 80008be:	431a      	orrs	r2, r3
 80008c0:	687b      	ldr	r3, [r7, #4]
 80008c2:	60da      	str	r2, [r3, #12]
  for (pinpos = 0x00; pinpos < 0x10; pinpos++)
 80008c4:	697b      	ldr	r3, [r7, #20]
 80008c6:	3301      	adds	r3, #1
 80008c8:	617b      	str	r3, [r7, #20]
 80008ca:	697b      	ldr	r3, [r7, #20]
 80008cc:	2b0f      	cmp	r3, #15
 80008ce:	d985      	bls.n	80007dc <GPIO_Init+0x1c>
    }
  }
}
 80008d0:	bf00      	nop
 80008d2:	bf00      	nop
 80008d4:	371c      	adds	r7, #28
 80008d6:	46bd      	mov	sp, r7
 80008d8:	f85d 7b04 	ldr.w	r7, [sp], #4
 80008dc:	4770      	bx	lr

080008de <GPIO_PinAFConfig>:
  *            @arg GPIO_AF_LTDC: Connect LTDC pins to AF14 for STM32F429xx/439xx devices.
  *            @arg GPIO_AF_EVENTOUT: Connect EVENTOUT pins to AF15
  * @retval None
  */
void GPIO_PinAFConfig(GPIO_TypeDef* GPIOx, uint16_t GPIO_PinSource, uint8_t GPIO_AF)
{
 80008de:	b480      	push	{r7}
 80008e0:	b085      	sub	sp, #20
 80008e2:	af00      	add	r7, sp, #0
 80008e4:	6078      	str	r0, [r7, #4]
 80008e6:	460b      	mov	r3, r1
 80008e8:	807b      	strh	r3, [r7, #2]
 80008ea:	4613      	mov	r3, r2
 80008ec:	707b      	strb	r3, [r7, #1]
  uint32_t temp = 0x00;
 80008ee:	2300      	movs	r3, #0
 80008f0:	60fb      	str	r3, [r7, #12]
  uint32_t temp_2 = 0x00;
 80008f2:	2300      	movs	r3, #0
 80008f4:	60bb      	str	r3, [r7, #8]

  temp = ((uint32_t)(GPIO_AF) << ((uint32_t)((uint32_t)GPIO_PinSource & (uint32_t)0x07) * 4)) ;
 80008f6:	787a      	ldrb	r2, [r7, #1]
 80008f8:	887b      	ldrh	r3, [r7, #2]
 80008fa:	f003 0307 	and.w	r3, r3, #7
 80008fe:	009b      	lsls	r3, r3, #2
 8000900:	fa02 f303 	lsl.w	r3, r2, r3
 8000904:	60fb      	str	r3, [r7, #12]
  GPIOx->AFR[GPIO_PinSource >> 0x03] &= ~((uint32_t)0xF << ((uint32_t)((uint32_t)GPIO_PinSource & (uint32_t)0x07) * 4)) ;
 8000906:	887b      	ldrh	r3, [r7, #2]
 8000908:	08db      	lsrs	r3, r3, #3
 800090a:	b29b      	uxth	r3, r3
 800090c:	461a      	mov	r2, r3
 800090e:	687b      	ldr	r3, [r7, #4]
 8000910:	3208      	adds	r2, #8
 8000912:	f853 2022 	ldr.w	r2, [r3, r2, lsl #2]
 8000916:	887b      	ldrh	r3, [r7, #2]
 8000918:	f003 0307 	and.w	r3, r3, #7
 800091c:	009b      	lsls	r3, r3, #2
 800091e:	210f      	movs	r1, #15
 8000920:	fa01 f303 	lsl.w	r3, r1, r3
 8000924:	43db      	mvns	r3, r3
 8000926:	8879      	ldrh	r1, [r7, #2]
 8000928:	08c9      	lsrs	r1, r1, #3
 800092a:	b289      	uxth	r1, r1
 800092c:	4608      	mov	r0, r1
 800092e:	ea02 0103 	and.w	r1, r2, r3
 8000932:	687b      	ldr	r3, [r7, #4]
 8000934:	f100 0208 	add.w	r2, r0, #8
 8000938:	f843 1022 	str.w	r1, [r3, r2, lsl #2]
  temp_2 = GPIOx->AFR[GPIO_PinSource >> 0x03] | temp;
 800093c:	887b      	ldrh	r3, [r7, #2]
 800093e:	08db      	lsrs	r3, r3, #3
 8000940:	b29b      	uxth	r3, r3
 8000942:	461a      	mov	r2, r3
 8000944:	687b      	ldr	r3, [r7, #4]
 8000946:	3208      	adds	r2, #8
 8000948:	f853 3022 	ldr.w	r3, [r3, r2, lsl #2]
 800094c:	68fa      	ldr	r2, [r7, #12]
 800094e:	4313      	orrs	r3, r2
 8000950:	60bb      	str	r3, [r7, #8]
  GPIOx->AFR[GPIO_PinSource >> 0x03] = temp_2;
 8000952:	887b      	ldrh	r3, [r7, #2]
 8000954:	08db      	lsrs	r3, r3, #3
 8000956:	b29b      	uxth	r3, r3
 8000958:	461a      	mov	r2, r3
 800095a:	687b      	ldr	r3, [r7, #4]
 800095c:	3208      	adds	r2, #8
 800095e:	68b9      	ldr	r1, [r7, #8]
 8000960:	f843 1022 	str.w	r1, [r3, r2, lsl #2]
}
 8000964:	bf00      	nop
 8000966:	3714      	adds	r7, #20
 8000968:	46bd      	mov	sp, r7
 800096a:	f85d 7b04 	ldr.w	r7, [sp], #4
 800096e:	4770      	bx	lr

08000970 <RCC_GetClocksFreq>:
  *         configuration based on this function will be incorrect.
  *
  * @retval None
  */
void RCC_GetClocksFreq(RCC_ClocksTypeDef* RCC_Clocks)
{
 8000970:	b480      	push	{r7}
 8000972:	b089      	sub	sp, #36	; 0x24
 8000974:	af00      	add	r7, sp, #0
 8000976:	6078      	str	r0, [r7, #4]
  uint32_t tmp = 0, presc = 0, pllvco = 0, pllp = 2, pllsource = 0, pllm = 2;
 8000978:	2300      	movs	r3, #0
 800097a:	61bb      	str	r3, [r7, #24]
 800097c:	2300      	movs	r3, #0
 800097e:	617b      	str	r3, [r7, #20]
 8000980:	2300      	movs	r3, #0
 8000982:	61fb      	str	r3, [r7, #28]
 8000984:	2302      	movs	r3, #2
 8000986:	613b      	str	r3, [r7, #16]
 8000988:	2300      	movs	r3, #0
 800098a:	60fb      	str	r3, [r7, #12]
 800098c:	2302      	movs	r3, #2
 800098e:	60bb      	str	r3, [r7, #8]

  /* Get SYSCLK source -------------------------------------------------------*/
  tmp = RCC->CFGR & RCC_CFGR_SWS;
 8000990:	4b4a      	ldr	r3, [pc, #296]	; (8000abc <RCC_GetClocksFreq+0x14c>)
 8000992:	689b      	ldr	r3, [r3, #8]
 8000994:	f003 030c 	and.w	r3, r3, #12
 8000998:	61bb      	str	r3, [r7, #24]

  switch (tmp)
 800099a:	69bb      	ldr	r3, [r7, #24]
 800099c:	2b08      	cmp	r3, #8
 800099e:	d011      	beq.n	80009c4 <RCC_GetClocksFreq+0x54>
 80009a0:	69bb      	ldr	r3, [r7, #24]
 80009a2:	2b08      	cmp	r3, #8
 80009a4:	d844      	bhi.n	8000a30 <RCC_GetClocksFreq+0xc0>
 80009a6:	69bb      	ldr	r3, [r7, #24]
 80009a8:	2b00      	cmp	r3, #0
 80009aa:	d003      	beq.n	80009b4 <RCC_GetClocksFreq+0x44>
 80009ac:	69bb      	ldr	r3, [r7, #24]
 80009ae:	2b04      	cmp	r3, #4
 80009b0:	d004      	beq.n	80009bc <RCC_GetClocksFreq+0x4c>
 80009b2:	e03d      	b.n	8000a30 <RCC_GetClocksFreq+0xc0>
  {
  case 0x00:  /* HSI used as system clock source */
    RCC_Clocks->SYSCLK_Frequency = HSI_VALUE;
 80009b4:	687b      	ldr	r3, [r7, #4]
 80009b6:	4a42      	ldr	r2, [pc, #264]	; (8000ac0 <RCC_GetClocksFreq+0x150>)
 80009b8:	601a      	str	r2, [r3, #0]
    break;
 80009ba:	e03d      	b.n	8000a38 <RCC_GetClocksFreq+0xc8>
  case 0x04:  /* HSE used as system clock  source */
    RCC_Clocks->SYSCLK_Frequency = HSE_VALUE;
 80009bc:	687b      	ldr	r3, [r7, #4]
 80009be:	4a41      	ldr	r2, [pc, #260]	; (8000ac4 <RCC_GetClocksFreq+0x154>)
 80009c0:	601a      	str	r2, [r3, #0]
    break;
 80009c2:	e039      	b.n	8000a38 <RCC_GetClocksFreq+0xc8>
  case 0x08:  /* PLL P used as system clock  source */

    /* PLL_VCO = (HSE_VALUE or HSI_VALUE / PLLM) * PLLN
    SYSCLK = PLL_VCO / PLLP
    */
    pllsource = (RCC->PLLCFGR & RCC_PLLCFGR_PLLSRC) >> 22;
 80009c4:	4b3d      	ldr	r3, [pc, #244]	; (8000abc <RCC_GetClocksFreq+0x14c>)
 80009c6:	685b      	ldr	r3, [r3, #4]
 80009c8:	0d9b      	lsrs	r3, r3, #22
 80009ca:	f003 0301 	and.w	r3, r3, #1
 80009ce:	60fb      	str	r3, [r7, #12]
    pllm = RCC->PLLCFGR & RCC_PLLCFGR_PLLM;
 80009d0:	4b3a      	ldr	r3, [pc, #232]	; (8000abc <RCC_GetClocksFreq+0x14c>)
 80009d2:	685b      	ldr	r3, [r3, #4]
 80009d4:	f003 033f 	and.w	r3, r3, #63	; 0x3f
 80009d8:	60bb      	str	r3, [r7, #8]

    if (pllsource != 0)
 80009da:	68fb      	ldr	r3, [r7, #12]
 80009dc:	2b00      	cmp	r3, #0
 80009de:	d00c      	beq.n	80009fa <RCC_GetClocksFreq+0x8a>
    {
      /* HSE used as PLL clock source */
      pllvco = (HSE_VALUE / pllm) * ((RCC->PLLCFGR & RCC_PLLCFGR_PLLN) >> 6);
 80009e0:	4a38      	ldr	r2, [pc, #224]	; (8000ac4 <RCC_GetClocksFreq+0x154>)
 80009e2:	68bb      	ldr	r3, [r7, #8]
 80009e4:	fbb2 f3f3 	udiv	r3, r2, r3
 80009e8:	4a34      	ldr	r2, [pc, #208]	; (8000abc <RCC_GetClocksFreq+0x14c>)
 80009ea:	6852      	ldr	r2, [r2, #4]
 80009ec:	0992      	lsrs	r2, r2, #6
 80009ee:	f3c2 0208 	ubfx	r2, r2, #0, #9
 80009f2:	fb02 f303 	mul.w	r3, r2, r3
 80009f6:	61fb      	str	r3, [r7, #28]
 80009f8:	e00b      	b.n	8000a12 <RCC_GetClocksFreq+0xa2>
    }
    else
    {
      /* HSI used as PLL clock source */
      pllvco = (HSI_VALUE / pllm) * ((RCC->PLLCFGR & RCC_PLLCFGR_PLLN) >> 6);
 80009fa:	4a31      	ldr	r2, [pc, #196]	; (8000ac0 <RCC_GetClocksFreq+0x150>)
 80009fc:	68bb      	ldr	r3, [r7, #8]
 80009fe:	fbb2 f3f3 	udiv	r3, r2, r3
 8000a02:	4a2e      	ldr	r2, [pc, #184]	; (8000abc <RCC_GetClocksFreq+0x14c>)
 8000a04:	6852      	ldr	r2, [r2, #4]
 8000a06:	0992      	lsrs	r2, r2, #6
 8000a08:	f3c2 0208 	ubfx	r2, r2, #0, #9
 8000a0c:	fb02 f303 	mul.w	r3, r2, r3
 8000a10:	61fb      	str	r3, [r7, #28]
    }

    pllp = (((RCC->PLLCFGR & RCC_PLLCFGR_PLLP) >>16) + 1 ) *2;
 8000a12:	4b2a      	ldr	r3, [pc, #168]	; (8000abc <RCC_GetClocksFreq+0x14c>)
 8000a14:	685b      	ldr	r3, [r3, #4]
 8000a16:	0c1b      	lsrs	r3, r3, #16
 8000a18:	f003 0303 	and.w	r3, r3, #3
 8000a1c:	3301      	adds	r3, #1
 8000a1e:	005b      	lsls	r3, r3, #1
 8000a20:	613b      	str	r3, [r7, #16]
    RCC_Clocks->SYSCLK_Frequency = pllvco/pllp;
 8000a22:	69fa      	ldr	r2, [r7, #28]
 8000a24:	693b      	ldr	r3, [r7, #16]
 8000a26:	fbb2 f2f3 	udiv	r2, r2, r3
 8000a2a:	687b      	ldr	r3, [r7, #4]
 8000a2c:	601a      	str	r2, [r3, #0]
    break;
 8000a2e:	e003      	b.n	8000a38 <RCC_GetClocksFreq+0xc8>
  default:
    RCC_Clocks->SYSCLK_Frequency = HSI_VALUE;
 8000a30:	687b      	ldr	r3, [r7, #4]
 8000a32:	4a23      	ldr	r2, [pc, #140]	; (8000ac0 <RCC_GetClocksFreq+0x150>)
 8000a34:	601a      	str	r2, [r3, #0]
    break;
 8000a36:	bf00      	nop
  }
  /* Compute HCLK, PCLK1 and PCLK2 clocks frequencies ------------------------*/

  /* Get HCLK prescaler */
  tmp = RCC->CFGR & RCC_CFGR_HPRE;
 8000a38:	4b20      	ldr	r3, [pc, #128]	; (8000abc <RCC_GetClocksFreq+0x14c>)
 8000a3a:	689b      	ldr	r3, [r3, #8]
 8000a3c:	f003 03f0 	and.w	r3, r3, #240	; 0xf0
 8000a40:	61bb      	str	r3, [r7, #24]
  tmp = tmp >> 4;
 8000a42:	69bb      	ldr	r3, [r7, #24]
 8000a44:	091b      	lsrs	r3, r3, #4
 8000a46:	61bb      	str	r3, [r7, #24]
  presc = APBAHBPrescTable[tmp];
 8000a48:	4a1f      	ldr	r2, [pc, #124]	; (8000ac8 <RCC_GetClocksFreq+0x158>)
 8000a4a:	69bb      	ldr	r3, [r7, #24]
 8000a4c:	4413      	add	r3, r2
 8000a4e:	781b      	ldrb	r3, [r3, #0]
 8000a50:	b2db      	uxtb	r3, r3
 8000a52:	617b      	str	r3, [r7, #20]
  /* HCLK clock frequency */
  RCC_Clocks->HCLK_Frequency = RCC_Clocks->SYSCLK_Frequency >> presc;
 8000a54:	687b      	ldr	r3, [r7, #4]
 8000a56:	681a      	ldr	r2, [r3, #0]
 8000a58:	697b      	ldr	r3, [r7, #20]
 8000a5a:	40da      	lsrs	r2, r3
 8000a5c:	687b      	ldr	r3, [r7, #4]
 8000a5e:	605a      	str	r2, [r3, #4]

  /* Get PCLK1 prescaler */
  tmp = RCC->CFGR & RCC_CFGR_PPRE1;
 8000a60:	4b16      	ldr	r3, [pc, #88]	; (8000abc <RCC_GetClocksFreq+0x14c>)
 8000a62:	689b      	ldr	r3, [r3, #8]
 8000a64:	f403 53e0 	and.w	r3, r3, #7168	; 0x1c00
 8000a68:	61bb      	str	r3, [r7, #24]
  tmp = tmp >> 10;
 8000a6a:	69bb      	ldr	r3, [r7, #24]
 8000a6c:	0a9b      	lsrs	r3, r3, #10
 8000a6e:	61bb      	str	r3, [r7, #24]
  presc = APBAHBPrescTable[tmp];
 8000a70:	4a15      	ldr	r2, [pc, #84]	; (8000ac8 <RCC_GetClocksFreq+0x158>)
 8000a72:	69bb      	ldr	r3, [r7, #24]
 8000a74:	4413      	add	r3, r2
 8000a76:	781b      	ldrb	r3, [r3, #0]
 8000a78:	b2db      	uxtb	r3, r3
 8000a7a:	617b      	str	r3, [r7, #20]
  /* PCLK1 clock frequency */
  RCC_Clocks->PCLK1_Frequency = RCC_Clocks->HCLK_Frequency >> presc;
 8000a7c:	687b      	ldr	r3, [r7, #4]
 8000a7e:	685a      	ldr	r2, [r3, #4]
 8000a80:	697b      	ldr	r3, [r7, #20]
 8000a82:	40da      	lsrs	r2, r3
 8000a84:	687b      	ldr	r3, [r7, #4]
 8000a86:	609a      	str	r2, [r3, #8]

  /* Get PCLK2 prescaler */
  tmp = RCC->CFGR & RCC_CFGR_PPRE2;
 8000a88:	4b0c      	ldr	r3, [pc, #48]	; (8000abc <RCC_GetClocksFreq+0x14c>)
 8000a8a:	689b      	ldr	r3, [r3, #8]
 8000a8c:	f403 4360 	and.w	r3, r3, #57344	; 0xe000
 8000a90:	61bb      	str	r3, [r7, #24]
  tmp = tmp >> 13;
 8000a92:	69bb      	ldr	r3, [r7, #24]
 8000a94:	0b5b      	lsrs	r3, r3, #13
 8000a96:	61bb      	str	r3, [r7, #24]
  presc = APBAHBPrescTable[tmp];
 8000a98:	4a0b      	ldr	r2, [pc, #44]	; (8000ac8 <RCC_GetClocksFreq+0x158>)
 8000a9a:	69bb      	ldr	r3, [r7, #24]
 8000a9c:	4413      	add	r3, r2
 8000a9e:	781b      	ldrb	r3, [r3, #0]
 8000aa0:	b2db      	uxtb	r3, r3
 8000aa2:	617b      	str	r3, [r7, #20]
  /* PCLK2 clock frequency */
  RCC_Clocks->PCLK2_Frequency = RCC_Clocks->HCLK_Frequency >> presc;
 8000aa4:	687b      	ldr	r3, [r7, #4]
 8000aa6:	685a      	ldr	r2, [r3, #4]
 8000aa8:	697b      	ldr	r3, [r7, #20]
 8000aaa:	40da      	lsrs	r2, r3
 8000aac:	687b      	ldr	r3, [r7, #4]
 8000aae:	60da      	str	r2, [r3, #12]
}
 8000ab0:	bf00      	nop
 8000ab2:	3724      	adds	r7, #36	; 0x24
 8000ab4:	46bd      	mov	sp, r7
 8000ab6:	f85d 7b04 	ldr.w	r7, [sp], #4
 8000aba:	4770      	bx	lr
 8000abc:	40023800 	.word	0x40023800
 8000ac0:	00f42400 	.word	0x00f42400
 8000ac4:	017d7840 	.word	0x017d7840
 8000ac8:	20000018 	.word	0x20000018

08000acc <RCC_AHB1PeriphClockCmd>:
  * @param  NewState: new state of the specified peripheral clock.
  *          This parameter can be: ENABLE or DISABLE.
  * @retval None
  */
void RCC_AHB1PeriphClockCmd(uint32_t RCC_AHB1Periph, FunctionalState NewState)
{
 8000acc:	b480      	push	{r7}
 8000ace:	b083      	sub	sp, #12
 8000ad0:	af00      	add	r7, sp, #0
 8000ad2:	6078      	str	r0, [r7, #4]
 8000ad4:	460b      	mov	r3, r1
 8000ad6:	70fb      	strb	r3, [r7, #3]
  /* Check the parameters */
  assert_param(IS_RCC_AHB1_CLOCK_PERIPH(RCC_AHB1Periph));

  assert_param(IS_FUNCTIONAL_STATE(NewState));
  if (NewState != DISABLE)
 8000ad8:	78fb      	ldrb	r3, [r7, #3]
 8000ada:	2b00      	cmp	r3, #0
 8000adc:	d006      	beq.n	8000aec <RCC_AHB1PeriphClockCmd+0x20>
  {
    RCC->AHB1ENR |= RCC_AHB1Periph;
 8000ade:	4b0a      	ldr	r3, [pc, #40]	; (8000b08 <RCC_AHB1PeriphClockCmd+0x3c>)
 8000ae0:	6b1a      	ldr	r2, [r3, #48]	; 0x30
 8000ae2:	4909      	ldr	r1, [pc, #36]	; (8000b08 <RCC_AHB1PeriphClockCmd+0x3c>)
 8000ae4:	687b      	ldr	r3, [r7, #4]
 8000ae6:	4313      	orrs	r3, r2
 8000ae8:	630b      	str	r3, [r1, #48]	; 0x30
  }
  else
  {
    RCC->AHB1ENR &= ~RCC_AHB1Periph;
  }
}
 8000aea:	e006      	b.n	8000afa <RCC_AHB1PeriphClockCmd+0x2e>
    RCC->AHB1ENR &= ~RCC_AHB1Periph;
 8000aec:	4b06      	ldr	r3, [pc, #24]	; (8000b08 <RCC_AHB1PeriphClockCmd+0x3c>)
 8000aee:	6b1a      	ldr	r2, [r3, #48]	; 0x30
 8000af0:	687b      	ldr	r3, [r7, #4]
 8000af2:	43db      	mvns	r3, r3
 8000af4:	4904      	ldr	r1, [pc, #16]	; (8000b08 <RCC_AHB1PeriphClockCmd+0x3c>)
 8000af6:	4013      	ands	r3, r2
 8000af8:	630b      	str	r3, [r1, #48]	; 0x30
}
 8000afa:	bf00      	nop
 8000afc:	370c      	adds	r7, #12
 8000afe:	46bd      	mov	sp, r7
 8000b00:	f85d 7b04 	ldr.w	r7, [sp], #4
 8000b04:	4770      	bx	lr
 8000b06:	bf00      	nop
 8000b08:	40023800 	.word	0x40023800

08000b0c <RCC_APB1PeriphClockCmd>:
  * @param  NewState: new state of the specified peripheral clock.
  *          This parameter can be: ENABLE or DISABLE.
  * @retval None
  */
void RCC_APB1PeriphClockCmd(uint32_t RCC_APB1Periph, FunctionalState NewState)
{
 8000b0c:	b480      	push	{r7}
 8000b0e:	b083      	sub	sp, #12
 8000b10:	af00      	add	r7, sp, #0
 8000b12:	6078      	str	r0, [r7, #4]
 8000b14:	460b      	mov	r3, r1
 8000b16:	70fb      	strb	r3, [r7, #3]
  /* Check the parameters */
  assert_param(IS_RCC_APB1_PERIPH(RCC_APB1Periph));
  assert_param(IS_FUNCTIONAL_STATE(NewState));

  if (NewState != DISABLE)
 8000b18:	78fb      	ldrb	r3, [r7, #3]
 8000b1a:	2b00      	cmp	r3, #0
 8000b1c:	d006      	beq.n	8000b2c <RCC_APB1PeriphClockCmd+0x20>
  {
    RCC->APB1ENR |= RCC_APB1Periph;
 8000b1e:	4b0a      	ldr	r3, [pc, #40]	; (8000b48 <RCC_APB1PeriphClockCmd+0x3c>)
 8000b20:	6c1a      	ldr	r2, [r3, #64]	; 0x40
 8000b22:	4909      	ldr	r1, [pc, #36]	; (8000b48 <RCC_APB1PeriphClockCmd+0x3c>)
 8000b24:	687b      	ldr	r3, [r7, #4]
 8000b26:	4313      	orrs	r3, r2
 8000b28:	640b      	str	r3, [r1, #64]	; 0x40
  }
  else
  {
    RCC->APB1ENR &= ~RCC_APB1Periph;
  }
}
 8000b2a:	e006      	b.n	8000b3a <RCC_APB1PeriphClockCmd+0x2e>
    RCC->APB1ENR &= ~RCC_APB1Periph;
 8000b2c:	4b06      	ldr	r3, [pc, #24]	; (8000b48 <RCC_APB1PeriphClockCmd+0x3c>)
 8000b2e:	6c1a      	ldr	r2, [r3, #64]	; 0x40
 8000b30:	687b      	ldr	r3, [r7, #4]
 8000b32:	43db      	mvns	r3, r3
 8000b34:	4904      	ldr	r1, [pc, #16]	; (8000b48 <RCC_APB1PeriphClockCmd+0x3c>)
 8000b36:	4013      	ands	r3, r2
 8000b38:	640b      	str	r3, [r1, #64]	; 0x40
}
 8000b3a:	bf00      	nop
 8000b3c:	370c      	adds	r7, #12
 8000b3e:	46bd      	mov	sp, r7
 8000b40:	f85d 7b04 	ldr.w	r7, [sp], #4
 8000b44:	4770      	bx	lr
 8000b46:	bf00      	nop
 8000b48:	40023800 	.word	0x40023800

08000b4c <TIM_TimeBaseInit>:
  * @param  TIM_TimeBaseInitStruct: pointer to a TIM_TimeBaseInitTypeDef structure
  *         that contains the configuration information for the specified TIM peripheral.
  * @retval None
  */
void TIM_TimeBaseInit(TIM_TypeDef* TIMx, TIM_TimeBaseInitTypeDef* TIM_TimeBaseInitStruct)
{
 8000b4c:	b480      	push	{r7}
 8000b4e:	b085      	sub	sp, #20
 8000b50:	af00      	add	r7, sp, #0
 8000b52:	6078      	str	r0, [r7, #4]
 8000b54:	6039      	str	r1, [r7, #0]
  uint16_t tmpcr1 = 0;
 8000b56:	2300      	movs	r3, #0
 8000b58:	81fb      	strh	r3, [r7, #14]
  /* Check the parameters */
  assert_param(IS_TIM_ALL_PERIPH(TIMx));
  assert_param(IS_TIM_COUNTER_MODE(TIM_TimeBaseInitStruct->TIM_CounterMode));
  assert_param(IS_TIM_CKD_DIV(TIM_TimeBaseInitStruct->TIM_ClockDivision));

  tmpcr1 = TIMx->CR1;
 8000b5a:	687b      	ldr	r3, [r7, #4]
 8000b5c:	881b      	ldrh	r3, [r3, #0]
 8000b5e:	81fb      	strh	r3, [r7, #14]

  if((TIMx == TIM1) || (TIMx == TIM2) || (TIMx == TIM3)|| (TIMx == TIM4))
 8000b60:	687b      	ldr	r3, [r7, #4]
 8000b62:	4a27      	ldr	r2, [pc, #156]	; (8000c00 <TIM_TimeBaseInit+0xb4>)
 8000b64:	4293      	cmp	r3, r2
 8000b66:	d00b      	beq.n	8000b80 <TIM_TimeBaseInit+0x34>
 8000b68:	687b      	ldr	r3, [r7, #4]
 8000b6a:	f1b3 4f80 	cmp.w	r3, #1073741824	; 0x40000000
 8000b6e:	d007      	beq.n	8000b80 <TIM_TimeBaseInit+0x34>
 8000b70:	687b      	ldr	r3, [r7, #4]
 8000b72:	4a24      	ldr	r2, [pc, #144]	; (8000c04 <TIM_TimeBaseInit+0xb8>)
 8000b74:	4293      	cmp	r3, r2
 8000b76:	d003      	beq.n	8000b80 <TIM_TimeBaseInit+0x34>
 8000b78:	687b      	ldr	r3, [r7, #4]
 8000b7a:	4a23      	ldr	r2, [pc, #140]	; (8000c08 <TIM_TimeBaseInit+0xbc>)
 8000b7c:	4293      	cmp	r3, r2
 8000b7e:	d108      	bne.n	8000b92 <TIM_TimeBaseInit+0x46>
  {
    /* Select the Counter Mode */
    tmpcr1 &= (uint16_t)(~(TIM_CR1_DIR | TIM_CR1_CMS));
 8000b80:	89fb      	ldrh	r3, [r7, #14]
 8000b82:	f023 0370 	bic.w	r3, r3, #112	; 0x70
 8000b86:	81fb      	strh	r3, [r7, #14]
    tmpcr1 |= (uint32_t)TIM_TimeBaseInitStruct->TIM_CounterMode;
 8000b88:	683b      	ldr	r3, [r7, #0]
 8000b8a:	885a      	ldrh	r2, [r3, #2]
 8000b8c:	89fb      	ldrh	r3, [r7, #14]
 8000b8e:	4313      	orrs	r3, r2
 8000b90:	81fb      	strh	r3, [r7, #14]
  }

  if((TIMx == TIM1) || (TIMx == TIM2) || (TIMx == TIM3)|| (TIMx == TIM4))
 8000b92:	687b      	ldr	r3, [r7, #4]
 8000b94:	4a1a      	ldr	r2, [pc, #104]	; (8000c00 <TIM_TimeBaseInit+0xb4>)
 8000b96:	4293      	cmp	r3, r2
 8000b98:	d00b      	beq.n	8000bb2 <TIM_TimeBaseInit+0x66>
 8000b9a:	687b      	ldr	r3, [r7, #4]
 8000b9c:	f1b3 4f80 	cmp.w	r3, #1073741824	; 0x40000000
 8000ba0:	d007      	beq.n	8000bb2 <TIM_TimeBaseInit+0x66>
 8000ba2:	687b      	ldr	r3, [r7, #4]
 8000ba4:	4a17      	ldr	r2, [pc, #92]	; (8000c04 <TIM_TimeBaseInit+0xb8>)
 8000ba6:	4293      	cmp	r3, r2
 8000ba8:	d003      	beq.n	8000bb2 <TIM_TimeBaseInit+0x66>
 8000baa:	687b      	ldr	r3, [r7, #4]
 8000bac:	4a16      	ldr	r2, [pc, #88]	; (8000c08 <TIM_TimeBaseInit+0xbc>)
 8000bae:	4293      	cmp	r3, r2
 8000bb0:	d108      	bne.n	8000bc4 <TIM_TimeBaseInit+0x78>
  {
    /* Set the clock division */
    tmpcr1 &=  (uint16_t)(~TIM_CR1_CKD);
 8000bb2:	89fb      	ldrh	r3, [r7, #14]
 8000bb4:	f423 7340 	bic.w	r3, r3, #768	; 0x300
 8000bb8:	81fb      	strh	r3, [r7, #14]
    tmpcr1 |= (uint32_t)TIM_TimeBaseInitStruct->TIM_ClockDivision;
 8000bba:	683b      	ldr	r3, [r7, #0]
 8000bbc:	891a      	ldrh	r2, [r3, #8]
 8000bbe:	89fb      	ldrh	r3, [r7, #14]
 8000bc0:	4313      	orrs	r3, r2
 8000bc2:	81fb      	strh	r3, [r7, #14]
  }

  TIMx->CR1 = tmpcr1;
 8000bc4:	687b      	ldr	r3, [r7, #4]
 8000bc6:	89fa      	ldrh	r2, [r7, #14]
 8000bc8:	801a      	strh	r2, [r3, #0]

  /* Set the Autoreload value */
  TIMx->ARR = TIM_TimeBaseInitStruct->TIM_Period ;
 8000bca:	683b      	ldr	r3, [r7, #0]
 8000bcc:	685a      	ldr	r2, [r3, #4]
 8000bce:	687b      	ldr	r3, [r7, #4]
 8000bd0:	62da      	str	r2, [r3, #44]	; 0x2c

  /* Set the Prescaler value */
  TIMx->PSC = TIM_TimeBaseInitStruct->TIM_Prescaler;
 8000bd2:	683b      	ldr	r3, [r7, #0]
 8000bd4:	881a      	ldrh	r2, [r3, #0]
 8000bd6:	687b      	ldr	r3, [r7, #4]
 8000bd8:	851a      	strh	r2, [r3, #40]	; 0x28

  if ((TIMx == TIM1))
 8000bda:	687b      	ldr	r3, [r7, #4]
 8000bdc:	4a08      	ldr	r2, [pc, #32]	; (8000c00 <TIM_TimeBaseInit+0xb4>)
 8000bde:	4293      	cmp	r3, r2
 8000be0:	d104      	bne.n	8000bec <TIM_TimeBaseInit+0xa0>
  {
    /* Set the Repetition Counter value */
    TIMx->RCR = TIM_TimeBaseInitStruct->TIM_RepetitionCounter;
 8000be2:	683b      	ldr	r3, [r7, #0]
 8000be4:	7a9b      	ldrb	r3, [r3, #10]
 8000be6:	b29a      	uxth	r2, r3
 8000be8:	687b      	ldr	r3, [r7, #4]
 8000bea:	861a      	strh	r2, [r3, #48]	; 0x30
  }

  /* Generate an update event to reload the Prescaler
     and the repetition counter(only for TIM1 and TIM8) value immediately */
  TIMx->EGR = TIM_PSCReloadMode_Immediate;
 8000bec:	687b      	ldr	r3, [r7, #4]
 8000bee:	2201      	movs	r2, #1
 8000bf0:	829a      	strh	r2, [r3, #20]
}
 8000bf2:	bf00      	nop
 8000bf4:	3714      	adds	r7, #20
 8000bf6:	46bd      	mov	sp, r7
 8000bf8:	f85d 7b04 	ldr.w	r7, [sp], #4
 8000bfc:	4770      	bx	lr
 8000bfe:	bf00      	nop
 8000c00:	40010000 	.word	0x40010000
 8000c04:	40000400 	.word	0x40000400
 8000c08:	40000800 	.word	0x40000800

08000c0c <TIM_GetCounter>:
  * @brief  Gets the TIMx Counter value.
  * @param  TIMx: where x can be 1 to 14 to select the TIM peripheral.
  * @retval Counter Register value
  */
uint32_t TIM_GetCounter(TIM_TypeDef* TIMx)
{
 8000c0c:	b480      	push	{r7}
 8000c0e:	b083      	sub	sp, #12
 8000c10:	af00      	add	r7, sp, #0
 8000c12:	6078      	str	r0, [r7, #4]
  /* Check the parameters */
  assert_param(IS_TIM_ALL_PERIPH(TIMx));

  /* Get the Counter Register value */
  return TIMx->CNT;
 8000c14:	687b      	ldr	r3, [r7, #4]
 8000c16:	6a5b      	ldr	r3, [r3, #36]	; 0x24
}
 8000c18:	4618      	mov	r0, r3
 8000c1a:	370c      	adds	r7, #12
 8000c1c:	46bd      	mov	sp, r7
 8000c1e:	f85d 7b04 	ldr.w	r7, [sp], #4
 8000c22:	4770      	bx	lr

08000c24 <TIM_Cmd>:
  * @param  NewState: new state of the TIMx peripheral.
  *          This parameter can be: ENABLE or DISABLE.
  * @retval None
  */
void TIM_Cmd(TIM_TypeDef* TIMx, FunctionalState NewState)
{
 8000c24:	b480      	push	{r7}
 8000c26:	b083      	sub	sp, #12
 8000c28:	af00      	add	r7, sp, #0
 8000c2a:	6078      	str	r0, [r7, #4]
 8000c2c:	460b      	mov	r3, r1
 8000c2e:	70fb      	strb	r3, [r7, #3]
  /* Check the parameters */
  assert_param(IS_TIM_ALL_PERIPH(TIMx));
  assert_param(IS_FUNCTIONAL_STATE(NewState));

  if (NewState != DISABLE)
 8000c30:	78fb      	ldrb	r3, [r7, #3]
 8000c32:	2b00      	cmp	r3, #0
 8000c34:	d008      	beq.n	8000c48 <TIM_Cmd+0x24>
  {
    /* Enable the TIM Counter */
    TIMx->CR1 |= TIM_CR1_CEN;
 8000c36:	687b      	ldr	r3, [r7, #4]
 8000c38:	881b      	ldrh	r3, [r3, #0]
 8000c3a:	b29b      	uxth	r3, r3
 8000c3c:	f043 0301 	orr.w	r3, r3, #1
 8000c40:	b29a      	uxth	r2, r3
 8000c42:	687b      	ldr	r3, [r7, #4]
 8000c44:	801a      	strh	r2, [r3, #0]
  else
  {
    /* Disable the TIM Counter */
    TIMx->CR1 &= (uint16_t)~TIM_CR1_CEN;
  }
}
 8000c46:	e007      	b.n	8000c58 <TIM_Cmd+0x34>
    TIMx->CR1 &= (uint16_t)~TIM_CR1_CEN;
 8000c48:	687b      	ldr	r3, [r7, #4]
 8000c4a:	881b      	ldrh	r3, [r3, #0]
 8000c4c:	b29b      	uxth	r3, r3
 8000c4e:	f023 0301 	bic.w	r3, r3, #1
 8000c52:	b29a      	uxth	r2, r3
 8000c54:	687b      	ldr	r3, [r7, #4]
 8000c56:	801a      	strh	r2, [r3, #0]
}
 8000c58:	bf00      	nop
 8000c5a:	370c      	adds	r7, #12
 8000c5c:	46bd      	mov	sp, r7
 8000c5e:	f85d 7b04 	ldr.w	r7, [sp], #4
 8000c62:	4770      	bx	lr

08000c64 <TIM_ICInit>:
  * @param  TIM_ICInitStruct: pointer to a TIM_ICInitTypeDef structure that contains
  *         the configuration information for the specified TIM peripheral.
  * @retval None
  */
void TIM_ICInit(TIM_TypeDef* TIMx, TIM_ICInitTypeDef* TIM_ICInitStruct)
{
 8000c64:	b580      	push	{r7, lr}
 8000c66:	b082      	sub	sp, #8
 8000c68:	af00      	add	r7, sp, #0
 8000c6a:	6078      	str	r0, [r7, #4]
 8000c6c:	6039      	str	r1, [r7, #0]
  assert_param(IS_TIM_IC_POLARITY(TIM_ICInitStruct->TIM_ICPolarity));
  assert_param(IS_TIM_IC_SELECTION(TIM_ICInitStruct->TIM_ICSelection));
  assert_param(IS_TIM_IC_PRESCALER(TIM_ICInitStruct->TIM_ICPrescaler));
  assert_param(IS_TIM_IC_FILTER(TIM_ICInitStruct->TIM_ICFilter));

  if (TIM_ICInitStruct->TIM_Channel == TIM_Channel_1)
 8000c6e:	683b      	ldr	r3, [r7, #0]
 8000c70:	881b      	ldrh	r3, [r3, #0]
 8000c72:	2b00      	cmp	r3, #0
 8000c74:	d10f      	bne.n	8000c96 <TIM_ICInit+0x32>
  {
    /* TI1 Configuration */
    TI1_Config(TIMx, TIM_ICInitStruct->TIM_ICPolarity,
 8000c76:	683b      	ldr	r3, [r7, #0]
 8000c78:	8859      	ldrh	r1, [r3, #2]
 8000c7a:	683b      	ldr	r3, [r7, #0]
 8000c7c:	889a      	ldrh	r2, [r3, #4]
 8000c7e:	683b      	ldr	r3, [r7, #0]
 8000c80:	891b      	ldrh	r3, [r3, #8]
 8000c82:	6878      	ldr	r0, [r7, #4]
 8000c84:	f000 f921 	bl	8000eca <TI1_Config>
               TIM_ICInitStruct->TIM_ICSelection,
               TIM_ICInitStruct->TIM_ICFilter);
    /* Set the Input Capture Prescaler value */
    TIM_SetIC1Prescaler(TIMx, TIM_ICInitStruct->TIM_ICPrescaler);
 8000c88:	683b      	ldr	r3, [r7, #0]
 8000c8a:	88db      	ldrh	r3, [r3, #6]
 8000c8c:	4619      	mov	r1, r3
 8000c8e:	6878      	ldr	r0, [r7, #4]
 8000c90:	f000 f848 	bl	8000d24 <TIM_SetIC1Prescaler>
               TIM_ICInitStruct->TIM_ICSelection,
               TIM_ICInitStruct->TIM_ICFilter);
    /* Set the Input Capture Prescaler value */
    TIM_SetIC4Prescaler(TIMx, TIM_ICInitStruct->TIM_ICPrescaler);
  }
}
 8000c94:	e036      	b.n	8000d04 <TIM_ICInit+0xa0>
  else if (TIM_ICInitStruct->TIM_Channel == TIM_Channel_2)
 8000c96:	683b      	ldr	r3, [r7, #0]
 8000c98:	881b      	ldrh	r3, [r3, #0]
 8000c9a:	2b04      	cmp	r3, #4
 8000c9c:	d10f      	bne.n	8000cbe <TIM_ICInit+0x5a>
    TI2_Config(TIMx, TIM_ICInitStruct->TIM_ICPolarity,
 8000c9e:	683b      	ldr	r3, [r7, #0]
 8000ca0:	8859      	ldrh	r1, [r3, #2]
 8000ca2:	683b      	ldr	r3, [r7, #0]
 8000ca4:	889a      	ldrh	r2, [r3, #4]
 8000ca6:	683b      	ldr	r3, [r7, #0]
 8000ca8:	891b      	ldrh	r3, [r3, #8]
 8000caa:	6878      	ldr	r0, [r7, #4]
 8000cac:	f000 f950 	bl	8000f50 <TI2_Config>
    TIM_SetIC2Prescaler(TIMx, TIM_ICInitStruct->TIM_ICPrescaler);
 8000cb0:	683b      	ldr	r3, [r7, #0]
 8000cb2:	88db      	ldrh	r3, [r3, #6]
 8000cb4:	4619      	mov	r1, r3
 8000cb6:	6878      	ldr	r0, [r7, #4]
 8000cb8:	f000 f850 	bl	8000d5c <TIM_SetIC2Prescaler>
}
 8000cbc:	e022      	b.n	8000d04 <TIM_ICInit+0xa0>
  else if (TIM_ICInitStruct->TIM_Channel == TIM_Channel_3)
 8000cbe:	683b      	ldr	r3, [r7, #0]
 8000cc0:	881b      	ldrh	r3, [r3, #0]
 8000cc2:	2b08      	cmp	r3, #8
 8000cc4:	d10f      	bne.n	8000ce6 <TIM_ICInit+0x82>
    TI3_Config(TIMx,  TIM_ICInitStruct->TIM_ICPolarity,
 8000cc6:	683b      	ldr	r3, [r7, #0]
 8000cc8:	8859      	ldrh	r1, [r3, #2]
 8000cca:	683b      	ldr	r3, [r7, #0]
 8000ccc:	889a      	ldrh	r2, [r3, #4]
 8000cce:	683b      	ldr	r3, [r7, #0]
 8000cd0:	891b      	ldrh	r3, [r3, #8]
 8000cd2:	6878      	ldr	r0, [r7, #4]
 8000cd4:	f000 f989 	bl	8000fea <TI3_Config>
    TIM_SetIC3Prescaler(TIMx, TIM_ICInitStruct->TIM_ICPrescaler);
 8000cd8:	683b      	ldr	r3, [r7, #0]
 8000cda:	88db      	ldrh	r3, [r3, #6]
 8000cdc:	4619      	mov	r1, r3
 8000cde:	6878      	ldr	r0, [r7, #4]
 8000ce0:	f000 f85a 	bl	8000d98 <TIM_SetIC3Prescaler>
}
 8000ce4:	e00e      	b.n	8000d04 <TIM_ICInit+0xa0>
    TI4_Config(TIMx, TIM_ICInitStruct->TIM_ICPolarity,
 8000ce6:	683b      	ldr	r3, [r7, #0]
 8000ce8:	8859      	ldrh	r1, [r3, #2]
 8000cea:	683b      	ldr	r3, [r7, #0]
 8000cec:	889a      	ldrh	r2, [r3, #4]
 8000cee:	683b      	ldr	r3, [r7, #0]
 8000cf0:	891b      	ldrh	r3, [r3, #8]
 8000cf2:	6878      	ldr	r0, [r7, #4]
 8000cf4:	f000 f9c1 	bl	800107a <TI4_Config>
    TIM_SetIC4Prescaler(TIMx, TIM_ICInitStruct->TIM_ICPrescaler);
 8000cf8:	683b      	ldr	r3, [r7, #0]
 8000cfa:	88db      	ldrh	r3, [r3, #6]
 8000cfc:	4619      	mov	r1, r3
 8000cfe:	6878      	ldr	r0, [r7, #4]
 8000d00:	f000 f866 	bl	8000dd0 <TIM_SetIC4Prescaler>
}
 8000d04:	bf00      	nop
 8000d06:	3708      	adds	r7, #8
 8000d08:	46bd      	mov	sp, r7
 8000d0a:	bd80      	pop	{r7, pc}

08000d0c <TIM_GetCapture2>:
  * @param  TIMx: where x can be 1, 2, 3, 4, 5, 8, 9 or 12 to select the TIM
  *         peripheral.
  * @retval Capture Compare 2 Register value.
  */
uint32_t TIM_GetCapture2(TIM_TypeDef* TIMx)
{
 8000d0c:	b480      	push	{r7}
 8000d0e:	b083      	sub	sp, #12
 8000d10:	af00      	add	r7, sp, #0
 8000d12:	6078      	str	r0, [r7, #4]
  /* Check the parameters */
  assert_param(IS_TIM_LIST2_PERIPH(TIMx));

  /* Get the Capture 2 Register value */
  return TIMx->CCR2;
 8000d14:	687b      	ldr	r3, [r7, #4]
 8000d16:	6b9b      	ldr	r3, [r3, #56]	; 0x38
}
 8000d18:	4618      	mov	r0, r3
 8000d1a:	370c      	adds	r7, #12
 8000d1c:	46bd      	mov	sp, r7
 8000d1e:	f85d 7b04 	ldr.w	r7, [sp], #4
 8000d22:	4770      	bx	lr

08000d24 <TIM_SetIC1Prescaler>:
  *            @arg TIM_ICPSC_DIV4: capture is done once every 4 events
  *            @arg TIM_ICPSC_DIV8: capture is done once every 8 events
  * @retval None
  */
void TIM_SetIC1Prescaler(TIM_TypeDef* TIMx, uint16_t TIM_ICPSC)
{
 8000d24:	b480      	push	{r7}
 8000d26:	b083      	sub	sp, #12
 8000d28:	af00      	add	r7, sp, #0
 8000d2a:	6078      	str	r0, [r7, #4]
 8000d2c:	460b      	mov	r3, r1
 8000d2e:	807b      	strh	r3, [r7, #2]
  /* Check the parameters */
  assert_param(IS_TIM_LIST1_PERIPH(TIMx));
  assert_param(IS_TIM_IC_PRESCALER(TIM_ICPSC));

  /* Reset the IC1PSC Bits */
  TIMx->CCMR1 &= (uint16_t)~TIM_CCMR1_IC1PSC;
 8000d30:	687b      	ldr	r3, [r7, #4]
 8000d32:	8b1b      	ldrh	r3, [r3, #24]
 8000d34:	b29b      	uxth	r3, r3
 8000d36:	f023 030c 	bic.w	r3, r3, #12
 8000d3a:	b29a      	uxth	r2, r3
 8000d3c:	687b      	ldr	r3, [r7, #4]
 8000d3e:	831a      	strh	r2, [r3, #24]

  /* Set the IC1PSC value */
  TIMx->CCMR1 |= TIM_ICPSC;
 8000d40:	687b      	ldr	r3, [r7, #4]
 8000d42:	8b1b      	ldrh	r3, [r3, #24]
 8000d44:	b29a      	uxth	r2, r3
 8000d46:	887b      	ldrh	r3, [r7, #2]
 8000d48:	4313      	orrs	r3, r2
 8000d4a:	b29a      	uxth	r2, r3
 8000d4c:	687b      	ldr	r3, [r7, #4]
 8000d4e:	831a      	strh	r2, [r3, #24]
}
 8000d50:	bf00      	nop
 8000d52:	370c      	adds	r7, #12
 8000d54:	46bd      	mov	sp, r7
 8000d56:	f85d 7b04 	ldr.w	r7, [sp], #4
 8000d5a:	4770      	bx	lr

08000d5c <TIM_SetIC2Prescaler>:
  *            @arg TIM_ICPSC_DIV4: capture is done once every 4 events
  *            @arg TIM_ICPSC_DIV8: capture is done once every 8 events
  * @retval None
  */
void TIM_SetIC2Prescaler(TIM_TypeDef* TIMx, uint16_t TIM_ICPSC)
{
 8000d5c:	b480      	push	{r7}
 8000d5e:	b083      	sub	sp, #12
 8000d60:	af00      	add	r7, sp, #0
 8000d62:	6078      	str	r0, [r7, #4]
 8000d64:	460b      	mov	r3, r1
 8000d66:	807b      	strh	r3, [r7, #2]
  /* Check the parameters */
  assert_param(IS_TIM_LIST2_PERIPH(TIMx));
  assert_param(IS_TIM_IC_PRESCALER(TIM_ICPSC));

  /* Reset the IC2PSC Bits */
  TIMx->CCMR1 &= (uint16_t)~TIM_CCMR1_IC2PSC;
 8000d68:	687b      	ldr	r3, [r7, #4]
 8000d6a:	8b1b      	ldrh	r3, [r3, #24]
 8000d6c:	b29b      	uxth	r3, r3
 8000d6e:	f423 6340 	bic.w	r3, r3, #3072	; 0xc00
 8000d72:	b29a      	uxth	r2, r3
 8000d74:	687b      	ldr	r3, [r7, #4]
 8000d76:	831a      	strh	r2, [r3, #24]

  /* Set the IC2PSC value */
  TIMx->CCMR1 |= (uint16_t)(TIM_ICPSC << 8);
 8000d78:	687b      	ldr	r3, [r7, #4]
 8000d7a:	8b1b      	ldrh	r3, [r3, #24]
 8000d7c:	b29a      	uxth	r2, r3
 8000d7e:	887b      	ldrh	r3, [r7, #2]
 8000d80:	021b      	lsls	r3, r3, #8
 8000d82:	b29b      	uxth	r3, r3
 8000d84:	4313      	orrs	r3, r2
 8000d86:	b29a      	uxth	r2, r3
 8000d88:	687b      	ldr	r3, [r7, #4]
 8000d8a:	831a      	strh	r2, [r3, #24]
}
 8000d8c:	bf00      	nop
 8000d8e:	370c      	adds	r7, #12
 8000d90:	46bd      	mov	sp, r7
 8000d92:	f85d 7b04 	ldr.w	r7, [sp], #4
 8000d96:	4770      	bx	lr

08000d98 <TIM_SetIC3Prescaler>:
  *            @arg TIM_ICPSC_DIV4: capture is done once every 4 events
  *            @arg TIM_ICPSC_DIV8: capture is done once every 8 events
  * @retval None
  */
void TIM_SetIC3Prescaler(TIM_TypeDef* TIMx, uint16_t TIM_ICPSC)
{
 8000d98:	b480      	push	{r7}
 8000d9a:	b083      	sub	sp, #12
 8000d9c:	af00      	add	r7, sp, #0
 8000d9e:	6078      	str	r0, [r7, #4]
 8000da0:	460b      	mov	r3, r1
 8000da2:	807b      	strh	r3, [r7, #2]
  /* Check the parameters */
  assert_param(IS_TIM_LIST3_PERIPH(TIMx));
  assert_param(IS_TIM_IC_PRESCALER(TIM_ICPSC));

  /* Reset the IC3PSC Bits */
  TIMx->CCMR2 &= (uint16_t)~TIM_CCMR2_IC3PSC;
 8000da4:	687b      	ldr	r3, [r7, #4]
 8000da6:	8b9b      	ldrh	r3, [r3, #28]
 8000da8:	b29b      	uxth	r3, r3
 8000daa:	f023 030c 	bic.w	r3, r3, #12
 8000dae:	b29a      	uxth	r2, r3
 8000db0:	687b      	ldr	r3, [r7, #4]
 8000db2:	839a      	strh	r2, [r3, #28]

  /* Set the IC3PSC value */
  TIMx->CCMR2 |= TIM_ICPSC;
 8000db4:	687b      	ldr	r3, [r7, #4]
 8000db6:	8b9b      	ldrh	r3, [r3, #28]
 8000db8:	b29a      	uxth	r2, r3
 8000dba:	887b      	ldrh	r3, [r7, #2]
 8000dbc:	4313      	orrs	r3, r2
 8000dbe:	b29a      	uxth	r2, r3
 8000dc0:	687b      	ldr	r3, [r7, #4]
 8000dc2:	839a      	strh	r2, [r3, #28]
}
 8000dc4:	bf00      	nop
 8000dc6:	370c      	adds	r7, #12
 8000dc8:	46bd      	mov	sp, r7
 8000dca:	f85d 7b04 	ldr.w	r7, [sp], #4
 8000dce:	4770      	bx	lr

08000dd0 <TIM_SetIC4Prescaler>:
  *            @arg TIM_ICPSC_DIV4: capture is done once every 4 events
  *            @arg TIM_ICPSC_DIV8: capture is done once every 8 events
  * @retval None
  */
void TIM_SetIC4Prescaler(TIM_TypeDef* TIMx, uint16_t TIM_ICPSC)
{
 8000dd0:	b480      	push	{r7}
 8000dd2:	b083      	sub	sp, #12
 8000dd4:	af00      	add	r7, sp, #0
 8000dd6:	6078      	str	r0, [r7, #4]
 8000dd8:	460b      	mov	r3, r1
 8000dda:	807b      	strh	r3, [r7, #2]
  /* Check the parameters */
  assert_param(IS_TIM_LIST3_PERIPH(TIMx));
  assert_param(IS_TIM_IC_PRESCALER(TIM_ICPSC));

  /* Reset the IC4PSC Bits */
  TIMx->CCMR2 &= (uint16_t)~TIM_CCMR2_IC4PSC;
 8000ddc:	687b      	ldr	r3, [r7, #4]
 8000dde:	8b9b      	ldrh	r3, [r3, #28]
 8000de0:	b29b      	uxth	r3, r3
 8000de2:	f423 6340 	bic.w	r3, r3, #3072	; 0xc00
 8000de6:	b29a      	uxth	r2, r3
 8000de8:	687b      	ldr	r3, [r7, #4]
 8000dea:	839a      	strh	r2, [r3, #28]

  /* Set the IC4PSC value */
  TIMx->CCMR2 |= (uint16_t)(TIM_ICPSC << 8);
 8000dec:	687b      	ldr	r3, [r7, #4]
 8000dee:	8b9b      	ldrh	r3, [r3, #28]
 8000df0:	b29a      	uxth	r2, r3
 8000df2:	887b      	ldrh	r3, [r7, #2]
 8000df4:	021b      	lsls	r3, r3, #8
 8000df6:	b29b      	uxth	r3, r3
 8000df8:	4313      	orrs	r3, r2
 8000dfa:	b29a      	uxth	r2, r3
 8000dfc:	687b      	ldr	r3, [r7, #4]
 8000dfe:	839a      	strh	r2, [r3, #28]
}
 8000e00:	bf00      	nop
 8000e02:	370c      	adds	r7, #12
 8000e04:	46bd      	mov	sp, r7
 8000e06:	f85d 7b04 	ldr.w	r7, [sp], #4
 8000e0a:	4770      	bx	lr

08000e0c <TIM_ITConfig>:
  * @param  NewState: new state of the TIM interrupts.
  *          This parameter can be: ENABLE or DISABLE.
  * @retval None
  */
void TIM_ITConfig(TIM_TypeDef* TIMx, uint16_t TIM_IT, FunctionalState NewState)
{
 8000e0c:	b480      	push	{r7}
 8000e0e:	b083      	sub	sp, #12
 8000e10:	af00      	add	r7, sp, #0
 8000e12:	6078      	str	r0, [r7, #4]
 8000e14:	460b      	mov	r3, r1
 8000e16:	807b      	strh	r3, [r7, #2]
 8000e18:	4613      	mov	r3, r2
 8000e1a:	707b      	strb	r3, [r7, #1]
  /* Check the parameters */
  assert_param(IS_TIM_ALL_PERIPH(TIMx));
  assert_param(IS_TIM_IT(TIM_IT));
  assert_param(IS_FUNCTIONAL_STATE(NewState));

  if (NewState != DISABLE)
 8000e1c:	787b      	ldrb	r3, [r7, #1]
 8000e1e:	2b00      	cmp	r3, #0
 8000e20:	d008      	beq.n	8000e34 <TIM_ITConfig+0x28>
  {
    /* Enable the Interrupt sources */
    TIMx->DIER |= TIM_IT;
 8000e22:	687b      	ldr	r3, [r7, #4]
 8000e24:	899b      	ldrh	r3, [r3, #12]
 8000e26:	b29a      	uxth	r2, r3
 8000e28:	887b      	ldrh	r3, [r7, #2]
 8000e2a:	4313      	orrs	r3, r2
 8000e2c:	b29a      	uxth	r2, r3
 8000e2e:	687b      	ldr	r3, [r7, #4]
 8000e30:	819a      	strh	r2, [r3, #12]
  else
  {
    /* Disable the Interrupt sources */
    TIMx->DIER &= (uint16_t)~TIM_IT;
  }
}
 8000e32:	e009      	b.n	8000e48 <TIM_ITConfig+0x3c>
    TIMx->DIER &= (uint16_t)~TIM_IT;
 8000e34:	687b      	ldr	r3, [r7, #4]
 8000e36:	899b      	ldrh	r3, [r3, #12]
 8000e38:	b29a      	uxth	r2, r3
 8000e3a:	887b      	ldrh	r3, [r7, #2]
 8000e3c:	43db      	mvns	r3, r3
 8000e3e:	b29b      	uxth	r3, r3
 8000e40:	4013      	ands	r3, r2
 8000e42:	b29a      	uxth	r2, r3
 8000e44:	687b      	ldr	r3, [r7, #4]
 8000e46:	819a      	strh	r2, [r3, #12]
}
 8000e48:	bf00      	nop
 8000e4a:	370c      	adds	r7, #12
 8000e4c:	46bd      	mov	sp, r7
 8000e4e:	f85d 7b04 	ldr.w	r7, [sp], #4
 8000e52:	4770      	bx	lr

08000e54 <TIM_GetITStatus>:
  * @note   TIM_IT_COM and TIM_IT_Break are used only with TIM1 and TIM8.
  *
  * @retval The new state of the TIM_IT(SET or RESET).
  */
ITStatus TIM_GetITStatus(TIM_TypeDef* TIMx, uint16_t TIM_IT)
{
 8000e54:	b480      	push	{r7}
 8000e56:	b085      	sub	sp, #20
 8000e58:	af00      	add	r7, sp, #0
 8000e5a:	6078      	str	r0, [r7, #4]
 8000e5c:	460b      	mov	r3, r1
 8000e5e:	807b      	strh	r3, [r7, #2]
  ITStatus bitstatus = RESET;
 8000e60:	2300      	movs	r3, #0
 8000e62:	73fb      	strb	r3, [r7, #15]
  uint16_t itstatus = 0x0, itenable = 0x0;
 8000e64:	2300      	movs	r3, #0
 8000e66:	81bb      	strh	r3, [r7, #12]
 8000e68:	2300      	movs	r3, #0
 8000e6a:	817b      	strh	r3, [r7, #10]
  /* Check the parameters */
  assert_param(IS_TIM_ALL_PERIPH(TIMx));
  assert_param(IS_TIM_GET_IT(TIM_IT));

  itstatus = TIMx->SR & TIM_IT;
 8000e6c:	687b      	ldr	r3, [r7, #4]
 8000e6e:	8a1b      	ldrh	r3, [r3, #16]
 8000e70:	b29a      	uxth	r2, r3
 8000e72:	887b      	ldrh	r3, [r7, #2]
 8000e74:	4013      	ands	r3, r2
 8000e76:	81bb      	strh	r3, [r7, #12]

  itenable = TIMx->DIER & TIM_IT;
 8000e78:	687b      	ldr	r3, [r7, #4]
 8000e7a:	899b      	ldrh	r3, [r3, #12]
 8000e7c:	b29a      	uxth	r2, r3
 8000e7e:	887b      	ldrh	r3, [r7, #2]
 8000e80:	4013      	ands	r3, r2
 8000e82:	817b      	strh	r3, [r7, #10]
  if ((itstatus != (uint16_t)RESET) && (itenable != (uint16_t)RESET))
 8000e84:	89bb      	ldrh	r3, [r7, #12]
 8000e86:	2b00      	cmp	r3, #0
 8000e88:	d005      	beq.n	8000e96 <TIM_GetITStatus+0x42>
 8000e8a:	897b      	ldrh	r3, [r7, #10]
 8000e8c:	2b00      	cmp	r3, #0
 8000e8e:	d002      	beq.n	8000e96 <TIM_GetITStatus+0x42>
  {
    bitstatus = SET;
 8000e90:	2301      	movs	r3, #1
 8000e92:	73fb      	strb	r3, [r7, #15]
 8000e94:	e001      	b.n	8000e9a <TIM_GetITStatus+0x46>
  }
  else
  {
    bitstatus = RESET;
 8000e96:	2300      	movs	r3, #0
 8000e98:	73fb      	strb	r3, [r7, #15]
  }
  return bitstatus;
 8000e9a:	7bfb      	ldrb	r3, [r7, #15]
}
 8000e9c:	4618      	mov	r0, r3
 8000e9e:	3714      	adds	r7, #20
 8000ea0:	46bd      	mov	sp, r7
 8000ea2:	f85d 7b04 	ldr.w	r7, [sp], #4
 8000ea6:	4770      	bx	lr

08000ea8 <TIM_ClearITPendingBit>:
  * @note   TIM_IT_COM and TIM_IT_Break are used only with TIM1 and TIM8.
  *
  * @retval None
  */
void TIM_ClearITPendingBit(TIM_TypeDef* TIMx, uint16_t TIM_IT)
{
 8000ea8:	b480      	push	{r7}
 8000eaa:	b083      	sub	sp, #12
 8000eac:	af00      	add	r7, sp, #0
 8000eae:	6078      	str	r0, [r7, #4]
 8000eb0:	460b      	mov	r3, r1
 8000eb2:	807b      	strh	r3, [r7, #2]
  /* Check the parameters */
  assert_param(IS_TIM_ALL_PERIPH(TIMx));

  /* Clear the IT pending Bit */
  TIMx->SR = (uint16_t)~TIM_IT;
 8000eb4:	887b      	ldrh	r3, [r7, #2]
 8000eb6:	43db      	mvns	r3, r3
 8000eb8:	b29a      	uxth	r2, r3
 8000eba:	687b      	ldr	r3, [r7, #4]
 8000ebc:	821a      	strh	r2, [r3, #16]
}
 8000ebe:	bf00      	nop
 8000ec0:	370c      	adds	r7, #12
 8000ec2:	46bd      	mov	sp, r7
 8000ec4:	f85d 7b04 	ldr.w	r7, [sp], #4
 8000ec8:	4770      	bx	lr

08000eca <TI1_Config>:
  *          This parameter must be a value between 0x00 and 0x0F.
  * @retval None
  */
static void TI1_Config(TIM_TypeDef* TIMx, uint16_t TIM_ICPolarity, uint16_t TIM_ICSelection,
                       uint16_t TIM_ICFilter)
{
 8000eca:	b480      	push	{r7}
 8000ecc:	b087      	sub	sp, #28
 8000ece:	af00      	add	r7, sp, #0
 8000ed0:	60f8      	str	r0, [r7, #12]
 8000ed2:	4608      	mov	r0, r1
 8000ed4:	4611      	mov	r1, r2
 8000ed6:	461a      	mov	r2, r3
 8000ed8:	4603      	mov	r3, r0
 8000eda:	817b      	strh	r3, [r7, #10]
 8000edc:	460b      	mov	r3, r1
 8000ede:	813b      	strh	r3, [r7, #8]
 8000ee0:	4613      	mov	r3, r2
 8000ee2:	80fb      	strh	r3, [r7, #6]
  uint16_t tmpccmr1 = 0, tmpccer = 0;
 8000ee4:	2300      	movs	r3, #0
 8000ee6:	82fb      	strh	r3, [r7, #22]
 8000ee8:	2300      	movs	r3, #0
 8000eea:	82bb      	strh	r3, [r7, #20]

  /* Disable the Channel 1: Reset the CC1E Bit */
  TIMx->CCER &= (uint16_t)~TIM_CCER_CC1E;
 8000eec:	68fb      	ldr	r3, [r7, #12]
 8000eee:	8c1b      	ldrh	r3, [r3, #32]
 8000ef0:	b29b      	uxth	r3, r3
 8000ef2:	f023 0301 	bic.w	r3, r3, #1
 8000ef6:	b29a      	uxth	r2, r3
 8000ef8:	68fb      	ldr	r3, [r7, #12]
 8000efa:	841a      	strh	r2, [r3, #32]
  tmpccmr1 = TIMx->CCMR1;
 8000efc:	68fb      	ldr	r3, [r7, #12]
 8000efe:	8b1b      	ldrh	r3, [r3, #24]
 8000f00:	82fb      	strh	r3, [r7, #22]
  tmpccer = TIMx->CCER;
 8000f02:	68fb      	ldr	r3, [r7, #12]
 8000f04:	8c1b      	ldrh	r3, [r3, #32]
 8000f06:	82bb      	strh	r3, [r7, #20]

  /* Select the Input and set the filter */
  tmpccmr1 &= ((uint16_t)~TIM_CCMR1_CC1S) & ((uint16_t)~TIM_CCMR1_IC1F);
 8000f08:	8afb      	ldrh	r3, [r7, #22]
 8000f0a:	f023 03f3 	bic.w	r3, r3, #243	; 0xf3
 8000f0e:	82fb      	strh	r3, [r7, #22]
  tmpccmr1 |= (uint16_t)(TIM_ICSelection | (uint16_t)(TIM_ICFilter << (uint16_t)4));
 8000f10:	88fb      	ldrh	r3, [r7, #6]
 8000f12:	011b      	lsls	r3, r3, #4
 8000f14:	b29a      	uxth	r2, r3
 8000f16:	893b      	ldrh	r3, [r7, #8]
 8000f18:	4313      	orrs	r3, r2
 8000f1a:	b29a      	uxth	r2, r3
 8000f1c:	8afb      	ldrh	r3, [r7, #22]
 8000f1e:	4313      	orrs	r3, r2
 8000f20:	82fb      	strh	r3, [r7, #22]

  /* Select the Polarity and set the CC1E Bit */
  tmpccer &= (uint16_t)~(TIM_CCER_CC1P | TIM_CCER_CC1NP);
 8000f22:	8abb      	ldrh	r3, [r7, #20]
 8000f24:	f023 030a 	bic.w	r3, r3, #10
 8000f28:	82bb      	strh	r3, [r7, #20]
  tmpccer |= (uint16_t)(TIM_ICPolarity | (uint16_t)TIM_CCER_CC1E);
 8000f2a:	897a      	ldrh	r2, [r7, #10]
 8000f2c:	8abb      	ldrh	r3, [r7, #20]
 8000f2e:	4313      	orrs	r3, r2
 8000f30:	b29b      	uxth	r3, r3
 8000f32:	f043 0301 	orr.w	r3, r3, #1
 8000f36:	82bb      	strh	r3, [r7, #20]

  /* Write to TIMx CCMR1 and CCER registers */
  TIMx->CCMR1 = tmpccmr1;
 8000f38:	68fb      	ldr	r3, [r7, #12]
 8000f3a:	8afa      	ldrh	r2, [r7, #22]
 8000f3c:	831a      	strh	r2, [r3, #24]
  TIMx->CCER = tmpccer;
 8000f3e:	68fb      	ldr	r3, [r7, #12]
 8000f40:	8aba      	ldrh	r2, [r7, #20]
 8000f42:	841a      	strh	r2, [r3, #32]
}
 8000f44:	bf00      	nop
 8000f46:	371c      	adds	r7, #28
 8000f48:	46bd      	mov	sp, r7
 8000f4a:	f85d 7b04 	ldr.w	r7, [sp], #4
 8000f4e:	4770      	bx	lr

08000f50 <TI2_Config>:
  *          This parameter must be a value between 0x00 and 0x0F.
  * @retval None
  */
static void TI2_Config(TIM_TypeDef* TIMx, uint16_t TIM_ICPolarity, uint16_t TIM_ICSelection,
                       uint16_t TIM_ICFilter)
{
 8000f50:	b480      	push	{r7}
 8000f52:	b087      	sub	sp, #28
 8000f54:	af00      	add	r7, sp, #0
 8000f56:	60f8      	str	r0, [r7, #12]
 8000f58:	4608      	mov	r0, r1
 8000f5a:	4611      	mov	r1, r2
 8000f5c:	461a      	mov	r2, r3
 8000f5e:	4603      	mov	r3, r0
 8000f60:	817b      	strh	r3, [r7, #10]
 8000f62:	460b      	mov	r3, r1
 8000f64:	813b      	strh	r3, [r7, #8]
 8000f66:	4613      	mov	r3, r2
 8000f68:	80fb      	strh	r3, [r7, #6]
  uint16_t tmpccmr1 = 0, tmpccer = 0, tmp = 0;
 8000f6a:	2300      	movs	r3, #0
 8000f6c:	82fb      	strh	r3, [r7, #22]
 8000f6e:	2300      	movs	r3, #0
 8000f70:	82bb      	strh	r3, [r7, #20]
 8000f72:	2300      	movs	r3, #0
 8000f74:	827b      	strh	r3, [r7, #18]

  /* Disable the Channel 2: Reset the CC2E Bit */
  TIMx->CCER &= (uint16_t)~TIM_CCER_CC2E;
 8000f76:	68fb      	ldr	r3, [r7, #12]
 8000f78:	8c1b      	ldrh	r3, [r3, #32]
 8000f7a:	b29b      	uxth	r3, r3
 8000f7c:	f023 0310 	bic.w	r3, r3, #16
 8000f80:	b29a      	uxth	r2, r3
 8000f82:	68fb      	ldr	r3, [r7, #12]
 8000f84:	841a      	strh	r2, [r3, #32]
  tmpccmr1 = TIMx->CCMR1;
 8000f86:	68fb      	ldr	r3, [r7, #12]
 8000f88:	8b1b      	ldrh	r3, [r3, #24]
 8000f8a:	82fb      	strh	r3, [r7, #22]
  tmpccer = TIMx->CCER;
 8000f8c:	68fb      	ldr	r3, [r7, #12]
 8000f8e:	8c1b      	ldrh	r3, [r3, #32]
 8000f90:	82bb      	strh	r3, [r7, #20]
  tmp = (uint16_t)(TIM_ICPolarity << 4);
 8000f92:	897b      	ldrh	r3, [r7, #10]
 8000f94:	011b      	lsls	r3, r3, #4
 8000f96:	827b      	strh	r3, [r7, #18]

  /* Select the Input and set the filter */
  tmpccmr1 &= ((uint16_t)~TIM_CCMR1_CC2S) & ((uint16_t)~TIM_CCMR1_IC2F);
 8000f98:	8afb      	ldrh	r3, [r7, #22]
 8000f9a:	f423 7340 	bic.w	r3, r3, #768	; 0x300
 8000f9e:	051b      	lsls	r3, r3, #20
 8000fa0:	0d1b      	lsrs	r3, r3, #20
 8000fa2:	82fb      	strh	r3, [r7, #22]
  tmpccmr1 |= (uint16_t)(TIM_ICFilter << 12);
 8000fa4:	88fb      	ldrh	r3, [r7, #6]
 8000fa6:	031b      	lsls	r3, r3, #12
 8000fa8:	b29a      	uxth	r2, r3
 8000faa:	8afb      	ldrh	r3, [r7, #22]
 8000fac:	4313      	orrs	r3, r2
 8000fae:	82fb      	strh	r3, [r7, #22]
  tmpccmr1 |= (uint16_t)(TIM_ICSelection << 8);
 8000fb0:	893b      	ldrh	r3, [r7, #8]
 8000fb2:	021b      	lsls	r3, r3, #8
 8000fb4:	b29a      	uxth	r2, r3
 8000fb6:	8afb      	ldrh	r3, [r7, #22]
 8000fb8:	4313      	orrs	r3, r2
 8000fba:	82fb      	strh	r3, [r7, #22]

  /* Select the Polarity and set the CC2E Bit */
  tmpccer &= (uint16_t)~(TIM_CCER_CC2P | TIM_CCER_CC2NP);
 8000fbc:	8abb      	ldrh	r3, [r7, #20]
 8000fbe:	f023 03a0 	bic.w	r3, r3, #160	; 0xa0
 8000fc2:	82bb      	strh	r3, [r7, #20]
  tmpccer |=  (uint16_t)(tmp | (uint16_t)TIM_CCER_CC2E);
 8000fc4:	8a7a      	ldrh	r2, [r7, #18]
 8000fc6:	8abb      	ldrh	r3, [r7, #20]
 8000fc8:	4313      	orrs	r3, r2
 8000fca:	b29b      	uxth	r3, r3
 8000fcc:	f043 0310 	orr.w	r3, r3, #16
 8000fd0:	82bb      	strh	r3, [r7, #20]

  /* Write to TIMx CCMR1 and CCER registers */
  TIMx->CCMR1 = tmpccmr1 ;
 8000fd2:	68fb      	ldr	r3, [r7, #12]
 8000fd4:	8afa      	ldrh	r2, [r7, #22]
 8000fd6:	831a      	strh	r2, [r3, #24]
  TIMx->CCER = tmpccer;
 8000fd8:	68fb      	ldr	r3, [r7, #12]
 8000fda:	8aba      	ldrh	r2, [r7, #20]
 8000fdc:	841a      	strh	r2, [r3, #32]
}
 8000fde:	bf00      	nop
 8000fe0:	371c      	adds	r7, #28
 8000fe2:	46bd      	mov	sp, r7
 8000fe4:	f85d 7b04 	ldr.w	r7, [sp], #4
 8000fe8:	4770      	bx	lr

08000fea <TI3_Config>:
  *          This parameter must be a value between 0x00 and 0x0F.
  * @retval None
  */
static void TI3_Config(TIM_TypeDef* TIMx, uint16_t TIM_ICPolarity, uint16_t TIM_ICSelection,
                       uint16_t TIM_ICFilter)
{
 8000fea:	b480      	push	{r7}
 8000fec:	b087      	sub	sp, #28
 8000fee:	af00      	add	r7, sp, #0
 8000ff0:	60f8      	str	r0, [r7, #12]
 8000ff2:	4608      	mov	r0, r1
 8000ff4:	4611      	mov	r1, r2
 8000ff6:	461a      	mov	r2, r3
 8000ff8:	4603      	mov	r3, r0
 8000ffa:	817b      	strh	r3, [r7, #10]
 8000ffc:	460b      	mov	r3, r1
 8000ffe:	813b      	strh	r3, [r7, #8]
 8001000:	4613      	mov	r3, r2
 8001002:	80fb      	strh	r3, [r7, #6]
  uint16_t tmpccmr2 = 0, tmpccer = 0, tmp = 0;
 8001004:	2300      	movs	r3, #0
 8001006:	82fb      	strh	r3, [r7, #22]
 8001008:	2300      	movs	r3, #0
 800100a:	82bb      	strh	r3, [r7, #20]
 800100c:	2300      	movs	r3, #0
 800100e:	827b      	strh	r3, [r7, #18]

  /* Disable the Channel 3: Reset the CC3E Bit */
  TIMx->CCER &= (uint16_t)~TIM_CCER_CC3E;
 8001010:	68fb      	ldr	r3, [r7, #12]
 8001012:	8c1b      	ldrh	r3, [r3, #32]
 8001014:	b29b      	uxth	r3, r3
 8001016:	f423 7380 	bic.w	r3, r3, #256	; 0x100
 800101a:	b29a      	uxth	r2, r3
 800101c:	68fb      	ldr	r3, [r7, #12]
 800101e:	841a      	strh	r2, [r3, #32]
  tmpccmr2 = TIMx->CCMR2;
 8001020:	68fb      	ldr	r3, [r7, #12]
 8001022:	8b9b      	ldrh	r3, [r3, #28]
 8001024:	82fb      	strh	r3, [r7, #22]
  tmpccer = TIMx->CCER;
 8001026:	68fb      	ldr	r3, [r7, #12]
 8001028:	8c1b      	ldrh	r3, [r3, #32]
 800102a:	82bb      	strh	r3, [r7, #20]
  tmp = (uint16_t)(TIM_ICPolarity << 8);
 800102c:	897b      	ldrh	r3, [r7, #10]
 800102e:	021b      	lsls	r3, r3, #8
 8001030:	827b      	strh	r3, [r7, #18]

  /* Select the Input and set the filter */
  tmpccmr2 &= ((uint16_t)~TIM_CCMR1_CC1S) & ((uint16_t)~TIM_CCMR2_IC3F);
 8001032:	8afb      	ldrh	r3, [r7, #22]
 8001034:	f023 03f3 	bic.w	r3, r3, #243	; 0xf3
 8001038:	82fb      	strh	r3, [r7, #22]
  tmpccmr2 |= (uint16_t)(TIM_ICSelection | (uint16_t)(TIM_ICFilter << (uint16_t)4));
 800103a:	88fb      	ldrh	r3, [r7, #6]
 800103c:	011b      	lsls	r3, r3, #4
 800103e:	b29a      	uxth	r2, r3
 8001040:	893b      	ldrh	r3, [r7, #8]
 8001042:	4313      	orrs	r3, r2
 8001044:	b29a      	uxth	r2, r3
 8001046:	8afb      	ldrh	r3, [r7, #22]
 8001048:	4313      	orrs	r3, r2
 800104a:	82fb      	strh	r3, [r7, #22]

  /* Select the Polarity and set the CC3E Bit */
  tmpccer &= (uint16_t)~(TIM_CCER_CC3P | TIM_CCER_CC3NP);
 800104c:	8abb      	ldrh	r3, [r7, #20]
 800104e:	f423 6320 	bic.w	r3, r3, #2560	; 0xa00
 8001052:	82bb      	strh	r3, [r7, #20]
  tmpccer |= (uint16_t)(tmp | (uint16_t)TIM_CCER_CC3E);
 8001054:	8a7a      	ldrh	r2, [r7, #18]
 8001056:	8abb      	ldrh	r3, [r7, #20]
 8001058:	4313      	orrs	r3, r2
 800105a:	b29b      	uxth	r3, r3
 800105c:	f443 7380 	orr.w	r3, r3, #256	; 0x100
 8001060:	82bb      	strh	r3, [r7, #20]

  /* Write to TIMx CCMR2 and CCER registers */
  TIMx->CCMR2 = tmpccmr2;
 8001062:	68fb      	ldr	r3, [r7, #12]
 8001064:	8afa      	ldrh	r2, [r7, #22]
 8001066:	839a      	strh	r2, [r3, #28]
  TIMx->CCER = tmpccer;
 8001068:	68fb      	ldr	r3, [r7, #12]
 800106a:	8aba      	ldrh	r2, [r7, #20]
 800106c:	841a      	strh	r2, [r3, #32]
}
 800106e:	bf00      	nop
 8001070:	371c      	adds	r7, #28
 8001072:	46bd      	mov	sp, r7
 8001074:	f85d 7b04 	ldr.w	r7, [sp], #4
 8001078:	4770      	bx	lr

0800107a <TI4_Config>:
  *          This parameter must be a value between 0x00 and 0x0F.
  * @retval None
  */
static void TI4_Config(TIM_TypeDef* TIMx, uint16_t TIM_ICPolarity, uint16_t TIM_ICSelection,
                       uint16_t TIM_ICFilter)
{
 800107a:	b480      	push	{r7}
 800107c:	b087      	sub	sp, #28
 800107e:	af00      	add	r7, sp, #0
 8001080:	60f8      	str	r0, [r7, #12]
 8001082:	4608      	mov	r0, r1
 8001084:	4611      	mov	r1, r2
 8001086:	461a      	mov	r2, r3
 8001088:	4603      	mov	r3, r0
 800108a:	817b      	strh	r3, [r7, #10]
 800108c:	460b      	mov	r3, r1
 800108e:	813b      	strh	r3, [r7, #8]
 8001090:	4613      	mov	r3, r2
 8001092:	80fb      	strh	r3, [r7, #6]
  uint16_t tmpccmr2 = 0, tmpccer = 0, tmp = 0;
 8001094:	2300      	movs	r3, #0
 8001096:	82fb      	strh	r3, [r7, #22]
 8001098:	2300      	movs	r3, #0
 800109a:	82bb      	strh	r3, [r7, #20]
 800109c:	2300      	movs	r3, #0
 800109e:	827b      	strh	r3, [r7, #18]

  /* Disable the Channel 4: Reset the CC4E Bit */
  TIMx->CCER &= (uint16_t)~TIM_CCER_CC4E;
 80010a0:	68fb      	ldr	r3, [r7, #12]
 80010a2:	8c1b      	ldrh	r3, [r3, #32]
 80010a4:	b29b      	uxth	r3, r3
 80010a6:	f423 5380 	bic.w	r3, r3, #4096	; 0x1000
 80010aa:	b29a      	uxth	r2, r3
 80010ac:	68fb      	ldr	r3, [r7, #12]
 80010ae:	841a      	strh	r2, [r3, #32]
  tmpccmr2 = TIMx->CCMR2;
 80010b0:	68fb      	ldr	r3, [r7, #12]
 80010b2:	8b9b      	ldrh	r3, [r3, #28]
 80010b4:	82fb      	strh	r3, [r7, #22]
  tmpccer = TIMx->CCER;
 80010b6:	68fb      	ldr	r3, [r7, #12]
 80010b8:	8c1b      	ldrh	r3, [r3, #32]
 80010ba:	82bb      	strh	r3, [r7, #20]
  tmp = (uint16_t)(TIM_ICPolarity << 12);
 80010bc:	897b      	ldrh	r3, [r7, #10]
 80010be:	031b      	lsls	r3, r3, #12
 80010c0:	827b      	strh	r3, [r7, #18]

  /* Select the Input and set the filter */
  tmpccmr2 &= ((uint16_t)~TIM_CCMR1_CC2S) & ((uint16_t)~TIM_CCMR1_IC2F);
 80010c2:	8afb      	ldrh	r3, [r7, #22]
 80010c4:	f423 7340 	bic.w	r3, r3, #768	; 0x300
 80010c8:	051b      	lsls	r3, r3, #20
 80010ca:	0d1b      	lsrs	r3, r3, #20
 80010cc:	82fb      	strh	r3, [r7, #22]
  tmpccmr2 |= (uint16_t)(TIM_ICSelection << 8);
 80010ce:	893b      	ldrh	r3, [r7, #8]
 80010d0:	021b      	lsls	r3, r3, #8
 80010d2:	b29a      	uxth	r2, r3
 80010d4:	8afb      	ldrh	r3, [r7, #22]
 80010d6:	4313      	orrs	r3, r2
 80010d8:	82fb      	strh	r3, [r7, #22]
  tmpccmr2 |= (uint16_t)(TIM_ICFilter << 12);
 80010da:	88fb      	ldrh	r3, [r7, #6]
 80010dc:	031b      	lsls	r3, r3, #12
 80010de:	b29a      	uxth	r2, r3
 80010e0:	8afb      	ldrh	r3, [r7, #22]
 80010e2:	4313      	orrs	r3, r2
 80010e4:	82fb      	strh	r3, [r7, #22]

  /* Select the Polarity and set the CC4E Bit */
  tmpccer &= (uint16_t)~(TIM_CCER_CC4P | TIM_CCER_CC4NP);
 80010e6:	8abb      	ldrh	r3, [r7, #20]
 80010e8:	f423 5300 	bic.w	r3, r3, #8192	; 0x2000
 80010ec:	045b      	lsls	r3, r3, #17
 80010ee:	0c5b      	lsrs	r3, r3, #17
 80010f0:	82bb      	strh	r3, [r7, #20]
  tmpccer |= (uint16_t)(tmp | (uint16_t)TIM_CCER_CC4E);
 80010f2:	8a7a      	ldrh	r2, [r7, #18]
 80010f4:	8abb      	ldrh	r3, [r7, #20]
 80010f6:	4313      	orrs	r3, r2
 80010f8:	b29b      	uxth	r3, r3
 80010fa:	f443 5380 	orr.w	r3, r3, #4096	; 0x1000
 80010fe:	82bb      	strh	r3, [r7, #20]

  /* Write to TIMx CCMR2 and CCER registers */
  TIMx->CCMR2 = tmpccmr2;
 8001100:	68fb      	ldr	r3, [r7, #12]
 8001102:	8afa      	ldrh	r2, [r7, #22]
 8001104:	839a      	strh	r2, [r3, #28]
  TIMx->CCER = tmpccer ;
 8001106:	68fb      	ldr	r3, [r7, #12]
 8001108:	8aba      	ldrh	r2, [r7, #20]
 800110a:	841a      	strh	r2, [r3, #32]
}
 800110c:	bf00      	nop
 800110e:	371c      	adds	r7, #28
 8001110:	46bd      	mov	sp, r7
 8001112:	f85d 7b04 	ldr.w	r7, [sp], #4
 8001116:	4770      	bx	lr

08001118 <USART_Init>:
  * @param  USART_InitStruct: pointer to a USART_InitTypeDef structure that contains
  *         the configuration information for the specified USART peripheral.
  * @retval None
  */
void USART_Init(USART_TypeDef* USARTx, USART_InitTypeDef* USART_InitStruct)
{
 8001118:	b580      	push	{r7, lr}
 800111a:	b08a      	sub	sp, #40	; 0x28
 800111c:	af00      	add	r7, sp, #0
 800111e:	6078      	str	r0, [r7, #4]
 8001120:	6039      	str	r1, [r7, #0]
  uint32_t tmpreg = 0x00, apbclock = 0x00;
 8001122:	2300      	movs	r3, #0
 8001124:	627b      	str	r3, [r7, #36]	; 0x24
 8001126:	2300      	movs	r3, #0
 8001128:	623b      	str	r3, [r7, #32]
  uint32_t integerdivider = 0x00;
 800112a:	2300      	movs	r3, #0
 800112c:	61fb      	str	r3, [r7, #28]
  uint32_t fractionaldivider = 0x00;
 800112e:	2300      	movs	r3, #0
 8001130:	61bb      	str	r3, [r7, #24]
  {
    assert_param(IS_USART_1236_PERIPH(USARTx));
  }

/*---------------------------- USART CR2 Configuration -----------------------*/
  tmpreg = USARTx->CR2;
 8001132:	687b      	ldr	r3, [r7, #4]
 8001134:	8a1b      	ldrh	r3, [r3, #16]
 8001136:	b29b      	uxth	r3, r3
 8001138:	627b      	str	r3, [r7, #36]	; 0x24

  /* Clear STOP[13:12] bits */
  tmpreg &= (uint32_t)~((uint32_t)USART_CR2_STOP);
 800113a:	6a7b      	ldr	r3, [r7, #36]	; 0x24
 800113c:	f423 5340 	bic.w	r3, r3, #12288	; 0x3000
 8001140:	627b      	str	r3, [r7, #36]	; 0x24

  /* Configure the USART Stop Bits, Clock, CPOL, CPHA and LastBit :
      Set STOP[13:12] bits according to USART_StopBits value */
  tmpreg |= (uint32_t)USART_InitStruct->USART_StopBits;
 8001142:	683b      	ldr	r3, [r7, #0]
 8001144:	88db      	ldrh	r3, [r3, #6]
 8001146:	461a      	mov	r2, r3
 8001148:	6a7b      	ldr	r3, [r7, #36]	; 0x24
 800114a:	4313      	orrs	r3, r2
 800114c:	627b      	str	r3, [r7, #36]	; 0x24

  /* Write to USART CR2 */
  USARTx->CR2 = (uint16_t)tmpreg;
 800114e:	6a7b      	ldr	r3, [r7, #36]	; 0x24
 8001150:	b29a      	uxth	r2, r3
 8001152:	687b      	ldr	r3, [r7, #4]
 8001154:	821a      	strh	r2, [r3, #16]

/*---------------------------- USART CR1 Configuration -----------------------*/
  tmpreg = USARTx->CR1;
 8001156:	687b      	ldr	r3, [r7, #4]
 8001158:	899b      	ldrh	r3, [r3, #12]
 800115a:	b29b      	uxth	r3, r3
 800115c:	627b      	str	r3, [r7, #36]	; 0x24

  /* Clear M, PCE, PS, TE and RE bits */
  tmpreg &= (uint32_t)~((uint32_t)CR1_CLEAR_MASK);
 800115e:	6a7b      	ldr	r3, [r7, #36]	; 0x24
 8001160:	f423 53b0 	bic.w	r3, r3, #5632	; 0x1600
 8001164:	f023 030c 	bic.w	r3, r3, #12
 8001168:	627b      	str	r3, [r7, #36]	; 0x24

  /* Configure the USART Word Length, Parity and mode:
     Set the M bits according to USART_WordLength value
     Set PCE and PS bits according to USART_Parity value
     Set TE and RE bits according to USART_Mode value */
  tmpreg |= (uint32_t)USART_InitStruct->USART_WordLength | USART_InitStruct->USART_Parity |
 800116a:	683b      	ldr	r3, [r7, #0]
 800116c:	889a      	ldrh	r2, [r3, #4]
 800116e:	683b      	ldr	r3, [r7, #0]
 8001170:	891b      	ldrh	r3, [r3, #8]
 8001172:	4313      	orrs	r3, r2
 8001174:	b29a      	uxth	r2, r3
            USART_InitStruct->USART_Mode;
 8001176:	683b      	ldr	r3, [r7, #0]
 8001178:	895b      	ldrh	r3, [r3, #10]
  tmpreg |= (uint32_t)USART_InitStruct->USART_WordLength | USART_InitStruct->USART_Parity |
 800117a:	4313      	orrs	r3, r2
 800117c:	b29b      	uxth	r3, r3
 800117e:	461a      	mov	r2, r3
 8001180:	6a7b      	ldr	r3, [r7, #36]	; 0x24
 8001182:	4313      	orrs	r3, r2
 8001184:	627b      	str	r3, [r7, #36]	; 0x24

  /* Write to USART CR1 */
  USARTx->CR1 = (uint16_t)tmpreg;
 8001186:	6a7b      	ldr	r3, [r7, #36]	; 0x24
 8001188:	b29a      	uxth	r2, r3
 800118a:	687b      	ldr	r3, [r7, #4]
 800118c:	819a      	strh	r2, [r3, #12]

/*---------------------------- USART CR3 Configuration -----------------------*/
  tmpreg = USARTx->CR3;
 800118e:	687b      	ldr	r3, [r7, #4]
 8001190:	8a9b      	ldrh	r3, [r3, #20]
 8001192:	b29b      	uxth	r3, r3
 8001194:	627b      	str	r3, [r7, #36]	; 0x24

  /* Clear CTSE and RTSE bits */
  tmpreg &= (uint32_t)~((uint32_t)CR3_CLEAR_MASK);
 8001196:	6a7b      	ldr	r3, [r7, #36]	; 0x24
 8001198:	f423 7340 	bic.w	r3, r3, #768	; 0x300
 800119c:	627b      	str	r3, [r7, #36]	; 0x24

  /* Configure the USART HFC :
      Set CTSE and RTSE bits according to USART_HardwareFlowControl value */
  tmpreg |= USART_InitStruct->USART_HardwareFlowControl;
 800119e:	683b      	ldr	r3, [r7, #0]
 80011a0:	899b      	ldrh	r3, [r3, #12]
 80011a2:	461a      	mov	r2, r3
 80011a4:	6a7b      	ldr	r3, [r7, #36]	; 0x24
 80011a6:	4313      	orrs	r3, r2
 80011a8:	627b      	str	r3, [r7, #36]	; 0x24

  /* Write to USART CR3 */
  USARTx->CR3 = (uint16_t)tmpreg;
 80011aa:	6a7b      	ldr	r3, [r7, #36]	; 0x24
 80011ac:	b29a      	uxth	r2, r3
 80011ae:	687b      	ldr	r3, [r7, #4]
 80011b0:	829a      	strh	r2, [r3, #20]

/*---------------------------- USART BRR Configuration -----------------------*/
  /* Configure the USART Baud Rate */
  RCC_GetClocksFreq(&RCC_ClocksStatus);
 80011b2:	f107 0308 	add.w	r3, r7, #8
 80011b6:	4618      	mov	r0, r3
 80011b8:	f7ff fbda 	bl	8000970 <RCC_GetClocksFreq>

  if ((USARTx == USART1) || (USARTx == USART6))
 80011bc:	687b      	ldr	r3, [r7, #4]
 80011be:	4a30      	ldr	r2, [pc, #192]	; (8001280 <USART_Init+0x168>)
 80011c0:	4293      	cmp	r3, r2
 80011c2:	d003      	beq.n	80011cc <USART_Init+0xb4>
 80011c4:	687b      	ldr	r3, [r7, #4]
 80011c6:	4a2f      	ldr	r2, [pc, #188]	; (8001284 <USART_Init+0x16c>)
 80011c8:	4293      	cmp	r3, r2
 80011ca:	d102      	bne.n	80011d2 <USART_Init+0xba>
  {
    apbclock = RCC_ClocksStatus.PCLK2_Frequency;
 80011cc:	697b      	ldr	r3, [r7, #20]
 80011ce:	623b      	str	r3, [r7, #32]
 80011d0:	e001      	b.n	80011d6 <USART_Init+0xbe>
  }
  else
  {
    apbclock = RCC_ClocksStatus.PCLK1_Frequency;
 80011d2:	693b      	ldr	r3, [r7, #16]
 80011d4:	623b      	str	r3, [r7, #32]
  }

  /* Determine the integer part */
  if ((USARTx->CR1 & USART_CR1_OVER8) != 0)
 80011d6:	687b      	ldr	r3, [r7, #4]
 80011d8:	899b      	ldrh	r3, [r3, #12]
 80011da:	b29b      	uxth	r3, r3
 80011dc:	b21b      	sxth	r3, r3
 80011de:	2b00      	cmp	r3, #0
 80011e0:	da0c      	bge.n	80011fc <USART_Init+0xe4>
  {
    /* Integer part computing in case Oversampling mode is 8 Samples */
    integerdivider = ((25 * apbclock) / (2 * (USART_InitStruct->USART_BaudRate)));
 80011e2:	6a3a      	ldr	r2, [r7, #32]
 80011e4:	4613      	mov	r3, r2
 80011e6:	009b      	lsls	r3, r3, #2
 80011e8:	4413      	add	r3, r2
 80011ea:	009a      	lsls	r2, r3, #2
 80011ec:	441a      	add	r2, r3
 80011ee:	683b      	ldr	r3, [r7, #0]
 80011f0:	681b      	ldr	r3, [r3, #0]
 80011f2:	005b      	lsls	r3, r3, #1
 80011f4:	fbb2 f3f3 	udiv	r3, r2, r3
 80011f8:	61fb      	str	r3, [r7, #28]
 80011fa:	e00b      	b.n	8001214 <USART_Init+0xfc>
  }
  else /* if ((USARTx->CR1 & USART_CR1_OVER8) == 0) */
  {
    /* Integer part computing in case Oversampling mode is 16 Samples */
    integerdivider = ((25 * apbclock) / (4 * (USART_InitStruct->USART_BaudRate)));
 80011fc:	6a3a      	ldr	r2, [r7, #32]
 80011fe:	4613      	mov	r3, r2
 8001200:	009b      	lsls	r3, r3, #2
 8001202:	4413      	add	r3, r2
 8001204:	009a      	lsls	r2, r3, #2
 8001206:	441a      	add	r2, r3
 8001208:	683b      	ldr	r3, [r7, #0]
 800120a:	681b      	ldr	r3, [r3, #0]
 800120c:	009b      	lsls	r3, r3, #2
 800120e:	fbb2 f3f3 	udiv	r3, r2, r3
 8001212:	61fb      	str	r3, [r7, #28]
  }
  tmpreg = (integerdivider / 100) << 4;
 8001214:	69fb      	ldr	r3, [r7, #28]
 8001216:	4a1c      	ldr	r2, [pc, #112]	; (8001288 <USART_Init+0x170>)
 8001218:	fba2 2303 	umull	r2, r3, r2, r3
 800121c:	095b      	lsrs	r3, r3, #5
 800121e:	011b      	lsls	r3, r3, #4
 8001220:	627b      	str	r3, [r7, #36]	; 0x24

  /* Determine the fractional part */
  fractionaldivider = integerdivider - (100 * (tmpreg >> 4));
 8001222:	6a7b      	ldr	r3, [r7, #36]	; 0x24
 8001224:	091b      	lsrs	r3, r3, #4
 8001226:	2264      	movs	r2, #100	; 0x64
 8001228:	fb02 f303 	mul.w	r3, r2, r3
 800122c:	69fa      	ldr	r2, [r7, #28]
 800122e:	1ad3      	subs	r3, r2, r3
 8001230:	61bb      	str	r3, [r7, #24]

  /* Implement the fractional part in the register */
  if ((USARTx->CR1 & USART_CR1_OVER8) != 0)
 8001232:	687b      	ldr	r3, [r7, #4]
 8001234:	899b      	ldrh	r3, [r3, #12]
 8001236:	b29b      	uxth	r3, r3
 8001238:	b21b      	sxth	r3, r3
 800123a:	2b00      	cmp	r3, #0
 800123c:	da0c      	bge.n	8001258 <USART_Init+0x140>
  {
    tmpreg |= ((((fractionaldivider * 8) + 50) / 100)) & ((uint8_t)0x07);
 800123e:	69bb      	ldr	r3, [r7, #24]
 8001240:	00db      	lsls	r3, r3, #3
 8001242:	3332      	adds	r3, #50	; 0x32
 8001244:	4a10      	ldr	r2, [pc, #64]	; (8001288 <USART_Init+0x170>)
 8001246:	fba2 2303 	umull	r2, r3, r2, r3
 800124a:	095b      	lsrs	r3, r3, #5
 800124c:	f003 0307 	and.w	r3, r3, #7
 8001250:	6a7a      	ldr	r2, [r7, #36]	; 0x24
 8001252:	4313      	orrs	r3, r2
 8001254:	627b      	str	r3, [r7, #36]	; 0x24
 8001256:	e00b      	b.n	8001270 <USART_Init+0x158>
  }
  else /* if ((USARTx->CR1 & USART_CR1_OVER8) == 0) */
  {
    tmpreg |= ((((fractionaldivider * 16) + 50) / 100)) & ((uint8_t)0x0F);
 8001258:	69bb      	ldr	r3, [r7, #24]
 800125a:	011b      	lsls	r3, r3, #4
 800125c:	3332      	adds	r3, #50	; 0x32
 800125e:	4a0a      	ldr	r2, [pc, #40]	; (8001288 <USART_Init+0x170>)
 8001260:	fba2 2303 	umull	r2, r3, r2, r3
 8001264:	095b      	lsrs	r3, r3, #5
 8001266:	f003 030f 	and.w	r3, r3, #15
 800126a:	6a7a      	ldr	r2, [r7, #36]	; 0x24
 800126c:	4313      	orrs	r3, r2
 800126e:	627b      	str	r3, [r7, #36]	; 0x24
  }

  /* Write to USART BRR register */
  USARTx->BRR = (uint16_t)tmpreg;
 8001270:	6a7b      	ldr	r3, [r7, #36]	; 0x24
 8001272:	b29a      	uxth	r2, r3
 8001274:	687b      	ldr	r3, [r7, #4]
 8001276:	811a      	strh	r2, [r3, #8]
}
 8001278:	bf00      	nop
 800127a:	3728      	adds	r7, #40	; 0x28
 800127c:	46bd      	mov	sp, r7
 800127e:	bd80      	pop	{r7, pc}
 8001280:	40011000 	.word	0x40011000
 8001284:	40011400 	.word	0x40011400
 8001288:	51eb851f 	.word	0x51eb851f

0800128c <USART_Cmd>:
  * @param  NewState: new state of the USARTx peripheral.
  *          This parameter can be: ENABLE or DISABLE.
  * @retval None
  */
void USART_Cmd(USART_TypeDef* USARTx, FunctionalState NewState)
{
 800128c:	b480      	push	{r7}
 800128e:	b083      	sub	sp, #12
 8001290:	af00      	add	r7, sp, #0
 8001292:	6078      	str	r0, [r7, #4]
 8001294:	460b      	mov	r3, r1
 8001296:	70fb      	strb	r3, [r7, #3]
  /* Check the parameters */
  assert_param(IS_USART_ALL_PERIPH(USARTx));
  assert_param(IS_FUNCTIONAL_STATE(NewState));

  if (NewState != DISABLE)
 8001298:	78fb      	ldrb	r3, [r7, #3]
 800129a:	2b00      	cmp	r3, #0
 800129c:	d008      	beq.n	80012b0 <USART_Cmd+0x24>
  {
    /* Enable the selected USART by setting the UE bit in the CR1 register */
    USARTx->CR1 |= USART_CR1_UE;
 800129e:	687b      	ldr	r3, [r7, #4]
 80012a0:	899b      	ldrh	r3, [r3, #12]
 80012a2:	b29b      	uxth	r3, r3
 80012a4:	f443 5300 	orr.w	r3, r3, #8192	; 0x2000
 80012a8:	b29a      	uxth	r2, r3
 80012aa:	687b      	ldr	r3, [r7, #4]
 80012ac:	819a      	strh	r2, [r3, #12]
  else
  {
    /* Disable the selected USART by clearing the UE bit in the CR1 register */
    USARTx->CR1 &= (uint16_t)~((uint16_t)USART_CR1_UE);
  }
}
 80012ae:	e007      	b.n	80012c0 <USART_Cmd+0x34>
    USARTx->CR1 &= (uint16_t)~((uint16_t)USART_CR1_UE);
 80012b0:	687b      	ldr	r3, [r7, #4]
 80012b2:	899b      	ldrh	r3, [r3, #12]
 80012b4:	b29b      	uxth	r3, r3
 80012b6:	f423 5300 	bic.w	r3, r3, #8192	; 0x2000
 80012ba:	b29a      	uxth	r2, r3
 80012bc:	687b      	ldr	r3, [r7, #4]
 80012be:	819a      	strh	r2, [r3, #12]
}
 80012c0:	bf00      	nop
 80012c2:	370c      	adds	r7, #12
 80012c4:	46bd      	mov	sp, r7
 80012c6:	f85d 7b04 	ldr.w	r7, [sp], #4
 80012ca:	4770      	bx	lr

080012cc <USART_SendData>:
  *         UART peripheral.
  * @param  Data: the data to transmit.
  * @retval None
  */
void USART_SendData(USART_TypeDef* USARTx, uint16_t Data)
{
 80012cc:	b480      	push	{r7}
 80012ce:	b083      	sub	sp, #12
 80012d0:	af00      	add	r7, sp, #0
 80012d2:	6078      	str	r0, [r7, #4]
 80012d4:	460b      	mov	r3, r1
 80012d6:	807b      	strh	r3, [r7, #2]
  /* Check the parameters */
  assert_param(IS_USART_ALL_PERIPH(USARTx));
  assert_param(IS_USART_DATA(Data));

  /* Transmit Data */
  USARTx->DR = (Data & (uint16_t)0x01FF);
 80012d8:	887b      	ldrh	r3, [r7, #2]
 80012da:	f3c3 0308 	ubfx	r3, r3, #0, #9
 80012de:	b29a      	uxth	r2, r3
 80012e0:	687b      	ldr	r3, [r7, #4]
 80012e2:	809a      	strh	r2, [r3, #4]
}
 80012e4:	bf00      	nop
 80012e6:	370c      	adds	r7, #12
 80012e8:	46bd      	mov	sp, r7
 80012ea:	f85d 7b04 	ldr.w	r7, [sp], #4
 80012ee:	4770      	bx	lr

080012f0 <USART_GetFlagStatus>:
  *            @arg USART_FLAG_FE:   Framing Error flag
  *            @arg USART_FLAG_PE:   Parity Error flag
  * @retval The new state of USART_FLAG (SET or RESET).
  */
FlagStatus USART_GetFlagStatus(USART_TypeDef* USARTx, uint16_t USART_FLAG)
{
 80012f0:	b480      	push	{r7}
 80012f2:	b085      	sub	sp, #20
 80012f4:	af00      	add	r7, sp, #0
 80012f6:	6078      	str	r0, [r7, #4]
 80012f8:	460b      	mov	r3, r1
 80012fa:	807b      	strh	r3, [r7, #2]
  FlagStatus bitstatus = RESET;
 80012fc:	2300      	movs	r3, #0
 80012fe:	73fb      	strb	r3, [r7, #15]
  if (USART_FLAG == USART_FLAG_CTS)
  {
    assert_param(IS_USART_1236_PERIPH(USARTx));
  }

  if ((USARTx->SR & USART_FLAG) != (uint16_t)RESET)
 8001300:	687b      	ldr	r3, [r7, #4]
 8001302:	881b      	ldrh	r3, [r3, #0]
 8001304:	b29a      	uxth	r2, r3
 8001306:	887b      	ldrh	r3, [r7, #2]
 8001308:	4013      	ands	r3, r2
 800130a:	b29b      	uxth	r3, r3
 800130c:	2b00      	cmp	r3, #0
 800130e:	d002      	beq.n	8001316 <USART_GetFlagStatus+0x26>
  {
    bitstatus = SET;
 8001310:	2301      	movs	r3, #1
 8001312:	73fb      	strb	r3, [r7, #15]
 8001314:	e001      	b.n	800131a <USART_GetFlagStatus+0x2a>
  }
  else
  {
    bitstatus = RESET;
 8001316:	2300      	movs	r3, #0
 8001318:	73fb      	strb	r3, [r7, #15]
  }
  return bitstatus;
 800131a:	7bfb      	ldrb	r3, [r7, #15]
}
 800131c:	4618      	mov	r0, r3
 800131e:	3714      	adds	r7, #20
 8001320:	46bd      	mov	sp, r7
 8001322:	f85d 7b04 	ldr.w	r7, [sp], #4
 8001326:	4770      	bx	lr

08001328 <NVIC_Init>:
 8001328:	b480      	push	{r7}
 800132a:	b085      	sub	sp, #20
 800132c:	af00      	add	r7, sp, #0
 800132e:	6078      	str	r0, [r7, #4]
 8001330:	2300      	movs	r3, #0
 8001332:	73fb      	strb	r3, [r7, #15]
 8001334:	2300      	movs	r3, #0
 8001336:	73bb      	strb	r3, [r7, #14]
 8001338:	230f      	movs	r3, #15
 800133a:	737b      	strb	r3, [r7, #13]
 800133c:	687b      	ldr	r3, [r7, #4]
 800133e:	78db      	ldrb	r3, [r3, #3]
 8001340:	2b00      	cmp	r3, #0
 8001342:	d039      	beq.n	80013b8 <NVIC_Init+0x90>
 8001344:	4b27      	ldr	r3, [pc, #156]	; (80013e4 <NVIC_Init+0xbc>)
 8001346:	68db      	ldr	r3, [r3, #12]
 8001348:	43db      	mvns	r3, r3
 800134a:	0a1b      	lsrs	r3, r3, #8
 800134c:	b2db      	uxtb	r3, r3
 800134e:	f003 0307 	and.w	r3, r3, #7
 8001352:	73fb      	strb	r3, [r7, #15]
 8001354:	7bfb      	ldrb	r3, [r7, #15]
 8001356:	f1c3 0304 	rsb	r3, r3, #4
 800135a:	73bb      	strb	r3, [r7, #14]
 800135c:	7b7a      	ldrb	r2, [r7, #13]
 800135e:	7bfb      	ldrb	r3, [r7, #15]
 8001360:	fa42 f303 	asr.w	r3, r2, r3
 8001364:	737b      	strb	r3, [r7, #13]
 8001366:	687b      	ldr	r3, [r7, #4]
 8001368:	785b      	ldrb	r3, [r3, #1]
 800136a:	461a      	mov	r2, r3
 800136c:	7bbb      	ldrb	r3, [r7, #14]
 800136e:	fa02 f303 	lsl.w	r3, r2, r3
 8001372:	73fb      	strb	r3, [r7, #15]
 8001374:	687b      	ldr	r3, [r7, #4]
 8001376:	789a      	ldrb	r2, [r3, #2]
 8001378:	7b7b      	ldrb	r3, [r7, #13]
 800137a:	4013      	ands	r3, r2
 800137c:	b2da      	uxtb	r2, r3
 800137e:	7bfb      	ldrb	r3, [r7, #15]
 8001380:	4313      	orrs	r3, r2
 8001382:	73fb      	strb	r3, [r7, #15]
 8001384:	7bfb      	ldrb	r3, [r7, #15]
 8001386:	011b      	lsls	r3, r3, #4
 8001388:	73fb      	strb	r3, [r7, #15]
 800138a:	4a17      	ldr	r2, [pc, #92]	; (80013e8 <NVIC_Init+0xc0>)
 800138c:	687b      	ldr	r3, [r7, #4]
 800138e:	781b      	ldrb	r3, [r3, #0]
 8001390:	4413      	add	r3, r2
 8001392:	7bfa      	ldrb	r2, [r7, #15]
 8001394:	f883 2300 	strb.w	r2, [r3, #768]	; 0x300
 8001398:	687b      	ldr	r3, [r7, #4]
 800139a:	781b      	ldrb	r3, [r3, #0]
 800139c:	f003 031f 	and.w	r3, r3, #31
 80013a0:	4911      	ldr	r1, [pc, #68]	; (80013e8 <NVIC_Init+0xc0>)
 80013a2:	687a      	ldr	r2, [r7, #4]
 80013a4:	7812      	ldrb	r2, [r2, #0]
 80013a6:	0952      	lsrs	r2, r2, #5
 80013a8:	b2d2      	uxtb	r2, r2
 80013aa:	4610      	mov	r0, r2
 80013ac:	2201      	movs	r2, #1
 80013ae:	fa02 f303 	lsl.w	r3, r2, r3
 80013b2:	f841 3020 	str.w	r3, [r1, r0, lsl #2]
 80013b6:	e00f      	b.n	80013d8 <NVIC_Init+0xb0>
 80013b8:	687b      	ldr	r3, [r7, #4]
 80013ba:	781b      	ldrb	r3, [r3, #0]
 80013bc:	f003 031f 	and.w	r3, r3, #31
 80013c0:	4909      	ldr	r1, [pc, #36]	; (80013e8 <NVIC_Init+0xc0>)
 80013c2:	687a      	ldr	r2, [r7, #4]
 80013c4:	7812      	ldrb	r2, [r2, #0]
 80013c6:	0952      	lsrs	r2, r2, #5
 80013c8:	b2d2      	uxtb	r2, r2
 80013ca:	4610      	mov	r0, r2
 80013cc:	2201      	movs	r2, #1
 80013ce:	409a      	lsls	r2, r3
 80013d0:	f100 0320 	add.w	r3, r0, #32
 80013d4:	f841 2023 	str.w	r2, [r1, r3, lsl #2]
 80013d8:	bf00      	nop
 80013da:	3714      	adds	r7, #20
 80013dc:	46bd      	mov	sp, r7
 80013de:	f85d 7b04 	ldr.w	r7, [sp], #4
 80013e2:	4770      	bx	lr
 80013e4:	e000ed00 	.word	0xe000ed00
 80013e8:	e000e100 	.word	0xe000e100

080013ec <__libc_init_array>:
 80013ec:	b570      	push	{r4, r5, r6, lr}
 80013ee:	4d0d      	ldr	r5, [pc, #52]	; (8001424 <__libc_init_array+0x38>)
 80013f0:	4c0d      	ldr	r4, [pc, #52]	; (8001428 <__libc_init_array+0x3c>)
 80013f2:	1b64      	subs	r4, r4, r5
 80013f4:	10a4      	asrs	r4, r4, #2
 80013f6:	2600      	movs	r6, #0
 80013f8:	42a6      	cmp	r6, r4
 80013fa:	d109      	bne.n	8001410 <__libc_init_array+0x24>
 80013fc:	4d0b      	ldr	r5, [pc, #44]	; (800142c <__libc_init_array+0x40>)
 80013fe:	4c0c      	ldr	r4, [pc, #48]	; (8001430 <__libc_init_array+0x44>)
 8001400:	f000 f818 	bl	8001434 <_init>
 8001404:	1b64      	subs	r4, r4, r5
 8001406:	10a4      	asrs	r4, r4, #2
 8001408:	2600      	movs	r6, #0
 800140a:	42a6      	cmp	r6, r4
 800140c:	d105      	bne.n	800141a <__libc_init_array+0x2e>
 800140e:	bd70      	pop	{r4, r5, r6, pc}
 8001410:	f855 3b04 	ldr.w	r3, [r5], #4
 8001414:	4798      	blx	r3
 8001416:	3601      	adds	r6, #1
 8001418:	e7ee      	b.n	80013f8 <__libc_init_array+0xc>
 800141a:	f855 3b04 	ldr.w	r3, [r5], #4
 800141e:	4798      	blx	r3
 8001420:	3601      	adds	r6, #1
 8001422:	e7f2      	b.n	800140a <__libc_init_array+0x1e>
 8001424:	08001468 	.word	0x08001468
 8001428:	08001468 	.word	0x08001468
 800142c:	08001468 	.word	0x08001468
 8001430:	0800146c 	.word	0x0800146c

08001434 <_init>:
 8001434:	b5f8      	push	{r3, r4, r5, r6, r7, lr}
 8001436:	bf00      	nop
 8001438:	bcf8      	pop	{r3, r4, r5, r6, r7}
 800143a:	bc08      	pop	{r3}
 800143c:	469e      	mov	lr, r3
 800143e:	4770      	bx	lr

08001440 <_fini>:
 8001440:	b5f8      	push	{r3, r4, r5, r6, r7, lr}
 8001442:	bf00      	nop
 8001444:	bcf8      	pop	{r3, r4, r5, r6, r7}
 8001446:	bc08      	pop	{r3}
 8001448:	469e      	mov	lr, r3
 800144a:	4770      	bx	lr
